((lp1
S'http://www.nju.edu.cn'
p2
a(lp3
S'www.nju.edu.cn'
p4
a(S'im.nju.edu.cn'
S'www.nju.edu.cn'
tp5
(dp6
S'http://www.nju.edu.cn'
p7
I17
sS'http://www.nju.edu.cn/5/list.htm'
p8
I13
sS'http://www.nju.edu.cn/00/b0/c20a176/page.htm'
p9
I34
sS'http://www.nju.edu.cn/57/list.htm'
p10
I27
sS'http://www.nju.edu.cn/24/list.htm'
p11
I2
sS'http://www.nju.edu.cn/18/list.htm'
p12
I6
sS'http://www.nju.edu.cn/20/list.htm'
p13
I9
sS'http://www.nju.edu.cn/25/list.htm'
p14
I11
sS'http://www.nju.edu.cn/31/23/c20a12579/page.htm'
p15
I33
sS'http://www.nju.edu.cn/79/list.htm'
p16
I31
sS'http://www.nju.edu.cn/16/db/c20a5851/page.htm'
p17
I38
sS'http://www.nju.edu.cn/19/list.htm'
p18
I3
sS'http://www.nju.edu.cn/51/list.htm'
p19
I21
sS'http://www.nju.edu.cn/9/list.htm'
p20
I25
sS'http://www.nju.edu.cn/16/list.htm'
p21
I4
sS'http://www.nju.edu.cn/27/list.htm'
p22
I15
sS'http://www.nju.edu.cn/6/list.htm'
p23
I12
sS'http://www.nju.edu.cn/8/list.htm'
p24
I35
sS'http://www.nju.edu.cn/7/list.htm'
p25
I18
sS'http://www.nju.edu.cn/17/list.htm'
p26
I5
sS'http://www.nju.edu.cn/15/list.htm'
p27
I8
sS'http://www.nju.edu.cn/26/list.htm'
p28
I14
sS'http://www.nju.edu.cn/56/list.htm'
p29
I28
sS'http://www.nju.edu.cn/53/list.htm'
p30
I26
sS'http://www.nju.edu.cn/38/list.htm'
p31
I22
sS'http://www.nju.edu.cn/06/9a/c20a1690/page.htm'
p32
I37
sS'http://www.nju.edu.cn/37/list.htm'
p33
I23
sS'http://www.nju.edu.cn/36/list.htm'
p34
I20
sS'http://www.nju.edu.cn/39/list.htm'
p35
I19
sS'http://www.nju.edu.cn/12/list.htm'
p36
I16
sS'http://www.nju.edu.cn/14/list.htm'
p37
I1
sS'http://www.nju.edu.cn/54/list.htm'
p38
I29
sS'http://www.nju.edu.cn/13/list.htm'
p39
I7
sS'http://www.nju.edu.cn/10/list.htm'
p40
I24
sS'http://www.nju.edu.cn/80/list.htm'
p41
I30
sS'http://www.nju.edu.cn/52/list.htm'
p42
I36
sS'http://www.nju.edu.cn/english'
p43
I10
sS'http://www.nju.edu.cn/00/af/c20a175/page.htm'
p44
I32
s(dp45
S'http://www.nju.edu.cn'
p46
c__builtin__
set
p47
((lp48
S'http://www.nju.edu.cn/25/list.htm'
p49
aS'http://www.nju.edu.cn/5/list.htm'
p50
aS'http://www.nju.edu.cn/00/b0/c20a176/page.htm'
p51
aS'http://www.nju.edu.cn/57/list.htm'
p52
aS'http://www.nju.edu.cn/24/list.htm'
p53
aS'http://www.nju.edu.cn/18/list.htm'
p54
aS'http://www.nju.edu.cn/20/list.htm'
p55
aS'http://www.nju.edu.cn'
p56
aS'http://www.nju.edu.cn/31/23/c20a12579/page.htm'
p57
aS'http://www.nju.edu.cn/79/list.htm'
p58
aS'http://www.nju.edu.cn/16/db/c20a5851/page.htm'
p59
aS'http://www.nju.edu.cn/19/list.htm'
p60
aS'http://www.nju.edu.cn/51/list.htm'
p61
aS'http://www.nju.edu.cn/9/list.htm'
p62
aS'http://www.nju.edu.cn/16/list.htm'
p63
aS'http://www.nju.edu.cn/27/list.htm'
p64
aS'http://www.nju.edu.cn/6/list.htm'
p65
aS'http://www.nju.edu.cn/8/list.htm'
p66
aS'http://www.nju.edu.cn/7/list.htm'
p67
aS'http://www.nju.edu.cn/17/list.htm'
p68
aS'http://www.nju.edu.cn/15/list.htm'
p69
aS'http://www.nju.edu.cn/26/list.htm'
p70
aS'http://www.nju.edu.cn/56/list.htm'
p71
aS'http://www.nju.edu.cn/53/list.htm'
p72
aS'http://www.nju.edu.cn/38/list.htm'
p73
aS'http://www.nju.edu.cn/06/9a/c20a1690/page.htm'
p74
aS'http://www.nju.edu.cn/37/list.htm'
p75
aS'http://www.nju.edu.cn/36/list.htm'
p76
aS'http://www.nju.edu.cn/39/list.htm'
p77
aS'http://www.nju.edu.cn/12/list.htm'
p78
aS'http://www.nju.edu.cn/14/list.htm'
p79
aS'http://www.nju.edu.cn/54/list.htm'
p80
aS'http://www.nju.edu.cn/13/list.htm'
p81
aS'http://www.nju.edu.cn/10/list.htm'
p82
aS'http://www.nju.edu.cn/00/af/c20a175/page.htm'
p83
aS'http://www.nju.edu.cn/80/list.htm'
p84
aS'http://www.nju.edu.cn/52/list.htm'
p85
aS'http://www.nju.edu.cn/english'
p86
atRp87
sg8
g47
((lp88
S'http://www.nju.edu.cn/25/list.htm'
p89
aS'http://www.nju.edu.cn/5/list.htm'
p90
aS'http://www.nju.edu.cn/main.htm'
p91
aS'http://www.nju.edu.cn/57/list.htm'
p92
aS'http://www.nju.edu.cn/24/list.htm'
p93
aS'http://www.nju.edu.cn/18/list.htm'
p94
aS'http://www.nju.edu.cn/20/list.htm'
p95
aS'http://www.nju.edu.cn'
p96
aS'http://www.nju.edu.cn/79/list.htm'
p97
aS'http://www.nju.edu.cn/19/list.htm'
p98
aS'http://www.nju.edu.cn/51/list.htm'
p99
aS'http://www.nju.edu.cn/9/list.htm'
p100
aS'http://www.nju.edu.cn/16/list.htm'
p101
aS'http://www.nju.edu.cn/27/list.htm'
p102
aS'http://www.nju.edu.cn/6/list.htm'
p103
aS'http://www.nju.edu.cn/8/list.htm'
p104
aS'http://www.nju.edu.cn/7/list.htm'
p105
aS'http://www.nju.edu.cn/17/list.htm'
p106
aS'http://www.nju.edu.cn/15/list.htm'
p107
aS'http://www.nju.edu.cn/26/list.htm'
p108
aS'http://www.nju.edu.cn/56/list.htm'
p109
aS'http://www.nju.edu.cn/53/list.htm'
p110
aS'http://www.nju.edu.cn/38/list.htm'
p111
aS'http://www.nju.edu.cn/37/list.htm'
p112
aS'http://www.nju.edu.cn/36/list.htm'
p113
aS'http://www.nju.edu.cn/39/list.htm'
p114
aS'http://www.nju.edu.cn/12/list.htm'
p115
aS'http://www.nju.edu.cn/14/list.htm'
p116
aS'http://www.nju.edu.cn/54/list.htm'
p117
aS'http://www.nju.edu.cn/13/list.htm'
p118
aS'http://www.nju.edu.cn/10/list.htm'
p119
aS'http://www.nju.edu.cn/80/list.htm'
p120
aS'http://www.nju.edu.cn/52/list.htm'
p121
aS'http://www.nju.edu.cn/english'
p122
atRp123
sg9
g47
((lp124
S'http://www.nju.edu.cn/9/list.htm'
p125
aS'http://www.nju.edu.cn/25/list.htm'
p126
aS'http://www.nju.edu.cn/26/list.htm'
p127
aS'http://www.nju.edu.cn/main.htm'
p128
aS'http://www.nju.edu.cn/57/list.htm'
p129
aS'http://www.nju.edu.cn/24/list.htm'
p130
aS'http://www.nju.edu.cn/18/list.htm'
p131
aS'http://www.nju.edu.cn/20/list.htm'
p132
aS'http://www.nju.edu.cn'
p133
aS'http://www.nju.edu.cn/79/list.htm'
p134
aS'http://www.nju.edu.cn/19/list.htm'
p135
aS'http://www.nju.edu.cn/3/list.htm'
p136
aS'http://www.nju.edu.cn/51/list.htm'
p137
aS'http://www.nju.edu.cn/5/list.htm'
p138
aS'http://www.nju.edu.cn/16/list.htm'
p139
aS'http://www.nju.edu.cn/27/list.htm'
p140
aS'http://www.nju.edu.cn/6/list.htm'
p141
aS'http://www.nju.edu.cn/8/list.htm'
p142
aS'http://www.nju.edu.cn/7/list.htm'
p143
aS'http://www.nju.edu.cn/17/list.htm'
p144
aS'http://www.nju.edu.cn/15/list.htm'
p145
aS'http://www.nju.edu.cn/00/b0/c20a176/page.htm'
p146
aS'http://www.nju.edu.cn/56/list.htm'
p147
aS'http://www.nju.edu.cn/53/list.htm'
p148
aS'http://www.nju.edu.cn/38/list.htm'
p149
aS'http://www.nju.edu.cn/37/list.htm'
p150
aS'http://www.nju.edu.cn/36/list.htm'
p151
aS'http://www.nju.edu.cn/39/list.htm'
p152
aS'http://www.nju.edu.cn/12/list.htm'
p153
aS'http://www.nju.edu.cn/14/list.htm'
p154
aS'http://www.nju.edu.cn/54/list.htm'
p155
aS'http://www.nju.edu.cn/13/list.htm'
p156
aS'http://www.nju.edu.cn/10/list.htm'
p157
aS'http://www.nju.edu.cn/80/list.htm'
p158
aS'http://www.nju.edu.cn/52/list.htm'
p159
aS'http://www.nju.edu.cn/english'
p160
atRp161
sg10
g47
((lp162
S'http://www.nju.edu.cn/25/list.htm'
p163
aS'http://www.nju.edu.cn/5/list.htm'
p164
aS'http://www.nju.edu.cn/main.htm'
p165
aS'http://www.nju.edu.cn/57/list.htm'
p166
aS'http://www.nju.edu.cn/24/list.htm'
p167
aS'http://www.nju.edu.cn/18/list.htm'
p168
aS'http://www.nju.edu.cn/20/list.htm'
p169
aS'http://www.nju.edu.cn'
p170
aS'http://www.nju.edu.cn/79/list.htm'
p171
aS'http://www.nju.edu.cn/19/list.htm'
p172
aS'http://www.nju.edu.cn/51/list.htm'
p173
aS'http://www.nju.edu.cn/9/list.htm'
p174
aS'http://www.nju.edu.cn/16/list.htm'
p175
aS'http://www.nju.edu.cn/27/list.htm'
p176
aS'http://www.nju.edu.cn/6/list.htm'
p177
aS'http://www.nju.edu.cn/8/list.htm'
p178
aS'http://www.nju.edu.cn/7/list.htm'
p179
aS'http://www.nju.edu.cn/17/list.htm'
p180
aS'http://www.nju.edu.cn/15/list.htm'
p181
aS'http://www.nju.edu.cn/26/list.htm'
p182
aS'http://www.nju.edu.cn/56/list.htm'
p183
aS'http://www.nju.edu.cn/53/list.htm'
p184
aS'http://www.nju.edu.cn/38/list.htm'
p185
aS'http://www.nju.edu.cn/37/list.htm'
p186
aS'http://www.nju.edu.cn/36/list.htm'
p187
aS'http://www.nju.edu.cn/39/list.htm'
p188
aS'http://www.nju.edu.cn/12/list.htm'
p189
aS'http://www.nju.edu.cn/14/list.htm'
p190
aS'http://www.nju.edu.cn/54/list.htm'
p191
aS'http://www.nju.edu.cn/13/list.htm'
p192
aS'http://www.nju.edu.cn/10/list.htm'
p193
aS'http://www.nju.edu.cn/80/list.htm'
p194
aS'http://www.nju.edu.cn/52/list.htm'
p195
aS'http://www.nju.edu.cn/english'
p196
atRp197
sg11
g47
((lp198
S'http://www.nju.edu.cn/25/list.htm'
p199
aS'http://www.nju.edu.cn/5/list.htm'
p200
aS'http://www.nju.edu.cn/main.htm'
p201
aS'http://www.nju.edu.cn/57/list.htm'
p202
aS'http://www.nju.edu.cn/24/list.htm'
p203
aS'http://www.nju.edu.cn/18/list.htm'
p204
aS'http://www.nju.edu.cn/20/list.htm'
p205
aS'http://www.nju.edu.cn'
p206
aS'http://www.nju.edu.cn/79/list.htm'
p207
aS'http://www.nju.edu.cn/19/list.htm'
p208
aS'http://www.nju.edu.cn/51/list.htm'
p209
aS'http://www.nju.edu.cn/9/list.htm'
p210
aS'http://www.nju.edu.cn/16/list.htm'
p211
aS'http://www.nju.edu.cn/27/list.htm'
p212
aS'http://www.nju.edu.cn/6/list.htm'
p213
aS'http://www.nju.edu.cn/8/list.htm'
p214
aS'http://www.nju.edu.cn/7/list.htm'
p215
aS'http://www.nju.edu.cn/17/list.htm'
p216
aS'http://www.nju.edu.cn/15/list.htm'
p217
aS'http://www.nju.edu.cn/26/list.htm'
p218
aS'http://www.nju.edu.cn/56/list.htm'
p219
aS'http://www.nju.edu.cn/53/list.htm'
p220
aS'http://www.nju.edu.cn/38/list.htm'
p221
aS'http://www.nju.edu.cn/37/list.htm'
p222
aS'http://www.nju.edu.cn/36/list.htm'
p223
aS'http://www.nju.edu.cn/39/list.htm'
p224
aS'http://www.nju.edu.cn/12/list.htm'
p225
aS'http://www.nju.edu.cn/14/list.htm'
p226
aS'http://www.nju.edu.cn/54/list.htm'
p227
aS'http://www.nju.edu.cn/13/list.htm'
p228
aS'http://www.nju.edu.cn/10/list.htm'
p229
aS'http://www.nju.edu.cn/80/list.htm'
p230
aS'http://www.nju.edu.cn/52/list.htm'
p231
aS'http://www.nju.edu.cn/english'
p232
atRp233
sg12
g47
((lp234
S'http://www.nju.edu.cn/25/list.htm'
p235
aS'http://www.nju.edu.cn/5/list.htm'
p236
aS'http://www.nju.edu.cn/main.htm'
p237
aS'http://www.nju.edu.cn/57/list.htm'
p238
aS'http://www.nju.edu.cn/24/list.htm'
p239
aS'http://www.nju.edu.cn/18/list.htm'
p240
aS'http://www.nju.edu.cn/20/list.htm'
p241
aS'http://www.nju.edu.cn'
p242
aS'http://www.nju.edu.cn/79/list.htm'
p243
aS'http://www.nju.edu.cn/19/list.htm'
p244
aS'http://www.nju.edu.cn/51/list.htm'
p245
aS'http://www.nju.edu.cn/9/list.htm'
p246
aS'http://www.nju.edu.cn/2/list.htm'
p247
aS'http://www.nju.edu.cn/16/list.htm'
p248
aS'http://www.nju.edu.cn/27/list.htm'
p249
aS'http://www.nju.edu.cn/6/list.htm'
p250
aS'http://www.nju.edu.cn/8/list.htm'
p251
aS'http://www.nju.edu.cn/7/list.htm'
p252
aS'http://www.nju.edu.cn/17/list.htm'
p253
aS'http://www.nju.edu.cn/15/list.htm'
p254
aS'http://www.nju.edu.cn/26/list.htm'
p255
aS'http://www.nju.edu.cn/56/list.htm'
p256
aS'http://www.nju.edu.cn/53/list.htm'
p257
aS'http://www.nju.edu.cn/38/list.htm'
p258
aS'http://www.nju.edu.cn/37/list.htm'
p259
aS'http://www.nju.edu.cn/36/list.htm'
p260
aS'http://www.nju.edu.cn/39/list.htm'
p261
aS'http://www.nju.edu.cn/12/list.htm'
p262
aS'http://www.nju.edu.cn/14/list.htm'
p263
aS'http://www.nju.edu.cn/54/list.htm'
p264
aS'http://www.nju.edu.cn/13/list.htm'
p265
aS'http://www.nju.edu.cn/10/list.htm'
p266
aS'http://www.nju.edu.cn/80/list.htm'
p267
aS'http://www.nju.edu.cn/52/list.htm'
p268
aS'http://www.nju.edu.cn/english'
p269
atRp270
sg13
g47
((lp271
S'http://www.nju.edu.cn/25/list.htm'
p272
aS'http://www.nju.edu.cn/5/list.htm'
p273
aS'http://www.nju.edu.cn/00/b0/c20a176/page.htm'
p274
aS'http://www.nju.edu.cn/main.htm'
p275
aS'http://www.nju.edu.cn/57/list.htm'
p276
aS'http://www.nju.edu.cn/24/list.htm'
p277
aS'http://www.nju.edu.cn/18/list.htm'
p278
aS'http://www.nju.edu.cn/20/list.htm'
p279
aS'http://www.nju.edu.cn'
p280
aS'http://www.nju.edu.cn/31/23/c20a12579/page.htm'
p281
aS'http://www.nju.edu.cn/79/list.htm'
p282
aS'http://www.nju.edu.cn/16/db/c20a5851/page.htm'
p283
aS'http://www.nju.edu.cn/19/list.htm'
p284
aS'http://www.nju.edu.cn/51/list.htm'
p285
aS'http://www.nju.edu.cn/9/list.htm'
p286
aS'http://www.nju.edu.cn/16/list.htm'
p287
aS'http://www.nju.edu.cn/27/list.htm'
p288
aS'http://www.nju.edu.cn/6/list.htm'
p289
aS'http://www.nju.edu.cn/8/list.htm'
p290
aS'http://www.nju.edu.cn/7/list.htm'
p291
aS'http://www.nju.edu.cn/17/list.htm'
p292
aS'http://www.nju.edu.cn/15/list.htm'
p293
aS'http://www.nju.edu.cn/26/list.htm'
p294
aS'http://www.nju.edu.cn/56/list.htm'
p295
aS'http://www.nju.edu.cn/53/list.htm'
p296
aS'http://www.nju.edu.cn/38/list.htm'
p297
aS'http://www.nju.edu.cn/06/9a/c20a1690/page.htm'
p298
aS'http://www.nju.edu.cn/37/list.htm'
p299
aS'http://www.nju.edu.cn/36/list.htm'
p300
aS'http://www.nju.edu.cn/39/list.htm'
p301
aS'http://www.nju.edu.cn/12/list.htm'
p302
aS'http://www.nju.edu.cn/14/list.htm'
p303
aS'http://www.nju.edu.cn/54/list.htm'
p304
aS'http://www.nju.edu.cn/13/list.htm'
p305
aS'http://www.nju.edu.cn/10/list.htm'
p306
aS'http://www.nju.edu.cn/00/af/c20a175/page.htm'
p307
aS'http://www.nju.edu.cn/80/list.htm'
p308
aS'http://www.nju.edu.cn/52/list.htm'
p309
aS'http://www.nju.edu.cn/english'
p310
atRp311
sg14
g47
((lp312
S'http://www.nju.edu.cn/25/list.htm'
p313
aS'http://www.nju.edu.cn/5/list.htm'
p314
aS'http://www.nju.edu.cn/main.htm'
p315
aS'http://www.nju.edu.cn/57/list.htm'
p316
aS'http://www.nju.edu.cn/24/list.htm'
p317
aS'http://www.nju.edu.cn/18/list.htm'
p318
aS'http://www.nju.edu.cn/20/list.htm'
p319
aS'http://www.nju.edu.cn'
p320
aS'http://www.nju.edu.cn/79/list.htm'
p321
aS'http://www.nju.edu.cn/19/list.htm'
p322
aS'http://www.nju.edu.cn/51/list.htm'
p323
aS'http://www.nju.edu.cn/9/list.htm'
p324
aS'http://www.nju.edu.cn/16/list.htm'
p325
aS'http://www.nju.edu.cn/27/list.htm'
p326
aS'http://www.nju.edu.cn/6/list.htm'
p327
aS'http://www.nju.edu.cn/8/list.htm'
p328
aS'http://www.nju.edu.cn/7/list.htm'
p329
aS'http://www.nju.edu.cn/17/list.htm'
p330
aS'http://www.nju.edu.cn/15/list.htm'
p331
aS'http://www.nju.edu.cn/26/list.htm'
p332
aS'http://www.nju.edu.cn/56/list.htm'
p333
aS'http://www.nju.edu.cn/53/list.htm'
p334
aS'http://www.nju.edu.cn/38/list.htm'
p335
aS'http://www.nju.edu.cn/4/list.htm'
p336
aS'http://www.nju.edu.cn/37/list.htm'
p337
aS'http://www.nju.edu.cn/36/list.htm'
p338
aS'http://www.nju.edu.cn/39/list.htm'
p339
aS'http://www.nju.edu.cn/12/list.htm'
p340
aS'http://www.nju.edu.cn/14/list.htm'
p341
aS'http://www.nju.edu.cn/54/list.htm'
p342
aS'http://www.nju.edu.cn/13/list.htm'
p343
aS'http://www.nju.edu.cn/10/list.htm'
p344
aS'http://www.nju.edu.cn/80/list.htm'
p345
aS'http://www.nju.edu.cn/52/list.htm'
p346
aS'http://www.nju.edu.cn/english'
p347
atRp348
sg15
g47
((lp349
S'http://www.nju.edu.cn/25/list.htm'
p350
aS'http://www.nju.edu.cn/5/list.htm'
p351
aS'http://www.nju.edu.cn/main.htm'
p352
aS'http://www.nju.edu.cn/57/list.htm'
p353
aS'http://www.nju.edu.cn/24/list.htm'
p354
aS'http://www.nju.edu.cn/18/list.htm'
p355
aS'http://www.nju.edu.cn/20/list.htm'
p356
aS'http://www.nju.edu.cn'
p357
aS'http://www.nju.edu.cn/12/list.htm'
p358
aS'http://www.nju.edu.cn/79/list.htm'
p359
aS'http://www.nju.edu.cn/19/list.htm'
p360
aS'http://www.nju.edu.cn/3/list.htm'
p361
aS'http://www.nju.edu.cn/51/list.htm'
p362
aS'http://www.nju.edu.cn/9/list.htm'
p363
aS'http://www.nju.edu.cn/16/list.htm'
p364
aS'http://www.nju.edu.cn/27/list.htm'
p365
aS'http://www.nju.edu.cn/6/list.htm'
p366
aS'http://www.nju.edu.cn/8/list.htm'
p367
aS'http://www.nju.edu.cn/7/list.htm'
p368
aS'http://www.nju.edu.cn/17/list.htm'
p369
aS'http://www.nju.edu.cn/15/list.htm'
p370
aS'http://www.nju.edu.cn/26/list.htm'
p371
aS'http://www.nju.edu.cn/56/list.htm'
p372
aS'http://www.nju.edu.cn/53/list.htm'
p373
aS'http://www.nju.edu.cn/38/list.htm'
p374
aS'http://www.nju.edu.cn/37/list.htm'
p375
aS'http://www.nju.edu.cn/36/list.htm'
p376
aS'http://www.nju.edu.cn/39/list.htm'
p377
aS'http://www.nju.edu.cn/31/23/c20a12579/page.htm'
p378
aS'http://www.nju.edu.cn/14/list.htm'
p379
aS'http://www.nju.edu.cn/54/list.htm'
p380
aS'http://www.nju.edu.cn/13/list.htm'
p381
aS'http://www.nju.edu.cn/10/list.htm'
p382
aS'http://www.nju.edu.cn/80/list.htm'
p383
aS'http://www.nju.edu.cn/52/list.htm'
p384
aS'http://www.nju.edu.cn/english'
p385
atRp386
sg16
g47
((lp387
S'http://www.nju.edu.cn/25/list.htm'
p388
aS'http://www.nju.edu.cn/5/list.htm'
p389
aS'http://www.nju.edu.cn/main.htm'
p390
aS'http://www.nju.edu.cn/57/list.htm'
p391
aS'http://www.nju.edu.cn/24/list.htm'
p392
aS'http://www.nju.edu.cn/18/list.htm'
p393
aS'http://www.nju.edu.cn/20/list.htm'
p394
aS'http://www.nju.edu.cn'
p395
aS'http://www.nju.edu.cn/53/list.htm'
p396
aS'http://www.nju.edu.cn/19/list.htm'
p397
aS'http://www.nju.edu.cn/51/list.htm'
p398
aS'http://www.nju.edu.cn/9/list.htm'
p399
aS'http://www.nju.edu.cn/16/list.htm'
p400
aS'http://www.nju.edu.cn/27/list.htm'
p401
aS'http://www.nju.edu.cn/6/list.htm'
p402
aS'http://www.nju.edu.cn/8/list.htm'
p403
aS'http://www.nju.edu.cn/7/list.htm'
p404
aS'http://www.nju.edu.cn/17/list.htm'
p405
aS'http://www.nju.edu.cn/15/list.htm'
p406
aS'http://www.nju.edu.cn/26/list.htm'
p407
aS'http://www.nju.edu.cn/56/list.htm'
p408
aS'http://www.nju.edu.cn/79/list.htm'
p409
aS'http://www.nju.edu.cn/38/list.htm'
p410
aS'http://www.nju.edu.cn/37/list.htm'
p411
aS'http://www.nju.edu.cn/36/list.htm'
p412
aS'http://www.nju.edu.cn/39/list.htm'
p413
aS'http://www.nju.edu.cn/12/list.htm'
p414
aS'http://www.nju.edu.cn/14/list.htm'
p415
aS'http://www.nju.edu.cn/54/list.htm'
p416
aS'http://www.nju.edu.cn/13/list.htm'
p417
aS'http://www.nju.edu.cn/10/list.htm'
p418
aS'http://www.nju.edu.cn/80/list.htm'
p419
aS'http://www.nju.edu.cn/52/list.htm'
p420
aS'http://www.nju.edu.cn/english'
p421
aS'http://www.nju.edu.cn/dbdh/list.htm'
p422
atRp423
sg17
g47
((lp424
S'http://www.nju.edu.cn/25/list.htm'
p425
aS'http://www.nju.edu.cn/5/list.htm'
p426
aS'http://www.nju.edu.cn/main.htm'
p427
aS'http://www.nju.edu.cn/57/list.htm'
p428
aS'http://www.nju.edu.cn/24/list.htm'
p429
aS'http://www.nju.edu.cn/18/list.htm'
p430
aS'http://www.nju.edu.cn/20/list.htm'
p431
aS'http://www.nju.edu.cn'
p432
aS'http://www.nju.edu.cn/53/list.htm'
p433
aS'http://www.nju.edu.cn/19/list.htm'
p434
aS'http://www.nju.edu.cn/3/list.htm'
p435
aS'http://www.nju.edu.cn/51/list.htm'
p436
aS'http://www.nju.edu.cn/79/list.htm'
p437
aS'http://www.nju.edu.cn/9/list.htm'
p438
aS'http://www.nju.edu.cn/16/list.htm'
p439
aS'http://www.nju.edu.cn/27/list.htm'
p440
aS'http://www.nju.edu.cn/6/list.htm'
p441
aS'http://www.nju.edu.cn/8/list.htm'
p442
aS'http://www.nju.edu.cn/7/list.htm'
p443
aS'http://www.nju.edu.cn/17/list.htm'
p444
aS'http://www.nju.edu.cn/15/list.htm'
p445
aS'http://www.nju.edu.cn/26/list.htm'
p446
aS'http://www.nju.edu.cn/56/list.htm'
p447
aS'http://www.nju.edu.cn/52/list.htm'
p448
aS'http://www.nju.edu.cn/38/list.htm'
p449
aS'http://www.nju.edu.cn/37/list.htm'
p450
aS'http://www.nju.edu.cn/36/list.htm'
p451
aS'http://www.nju.edu.cn/39/list.htm'
p452
aS'http://www.nju.edu.cn/12/list.htm'
p453
aS'http://www.nju.edu.cn/14/list.htm'
p454
aS'http://www.nju.edu.cn/54/list.htm'
p455
aS'http://www.nju.edu.cn/13/list.htm'
p456
aS'http://www.nju.edu.cn/10/list.htm'
p457
aS'http://www.nju.edu.cn/80/list.htm'
p458
aS'http://www.nju.edu.cn/16/db/c20a5851/page.htm'
p459
aS'http://www.nju.edu.cn/english'
p460
atRp461
sg18
g47
((lp462
S'http://www.nju.edu.cn/25/list.htm'
p463
aS'http://www.nju.edu.cn/5/list.htm'
p464
aS'http://www.nju.edu.cn/main.htm'
p465
aS'http://www.nju.edu.cn/57/list.htm'
p466
aS'http://www.nju.edu.cn/24/list.htm'
p467
aS'http://www.nju.edu.cn/18/list.htm'
p468
aS'http://www.nju.edu.cn/20/list.htm'
p469
aS'http://www.nju.edu.cn'
p470
aS'http://www.nju.edu.cn/79/list.htm'
p471
aS'http://www.nju.edu.cn/19/list.htm'
p472
aS'http://www.nju.edu.cn/51/list.htm'
p473
aS'http://www.nju.edu.cn/9/list.htm'
p474
aS'http://www.nju.edu.cn/2/list.htm'
p475
aS'http://www.nju.edu.cn/16/list.htm'
p476
aS'http://www.nju.edu.cn/27/list.htm'
p477
aS'http://www.nju.edu.cn/6/list.htm'
p478
aS'http://www.nju.edu.cn/8/list.htm'
p479
aS'http://www.nju.edu.cn/7/list.htm'
p480
aS'http://www.nju.edu.cn/17/list.htm'
p481
aS'http://www.nju.edu.cn/15/list.htm'
p482
aS'http://www.nju.edu.cn/26/list.htm'
p483
aS'http://www.nju.edu.cn/56/list.htm'
p484
aS'http://www.nju.edu.cn/53/list.htm'
p485
aS'http://www.nju.edu.cn/38/list.htm'
p486
aS'http://www.nju.edu.cn/37/list.htm'
p487
aS'http://www.nju.edu.cn/36/list.htm'
p488
aS'http://www.nju.edu.cn/39/list.htm'
p489
aS'http://www.nju.edu.cn/12/list.htm'
p490
aS'http://www.nju.edu.cn/14/list.htm'
p491
aS'http://www.nju.edu.cn/54/list.htm'
p492
aS'http://www.nju.edu.cn/13/list.htm'
p493
aS'http://www.nju.edu.cn/10/list.htm'
p494
aS'http://www.nju.edu.cn/80/list.htm'
p495
aS'http://www.nju.edu.cn/52/list.htm'
p496
aS'http://www.nju.edu.cn/english'
p497
atRp498
sg19
g47
((lp499
S'http://www.nju.edu.cn/25/list.htm'
p500
aS'http://www.nju.edu.cn/5/list.htm'
p501
aS'http://www.nju.edu.cn/main.htm'
p502
aS'http://www.nju.edu.cn/57/list.htm'
p503
aS'http://www.nju.edu.cn/24/list.htm'
p504
aS'http://www.nju.edu.cn/18/list.htm'
p505
aS'http://www.nju.edu.cn/20/list.htm'
p506
aS'http://www.nju.edu.cn'
p507
aS'http://www.nju.edu.cn/79/list.htm'
p508
aS'http://www.nju.edu.cn/19/list.htm'
p509
aS'http://www.nju.edu.cn/51/list.htm'
p510
aS'http://www.nju.edu.cn/9/list.htm'
p511
aS'http://www.nju.edu.cn/16/list.htm'
p512
aS'http://www.nju.edu.cn/27/list.htm'
p513
aS'http://www.nju.edu.cn/6/list.htm'
p514
aS'http://www.nju.edu.cn/8/list.htm'
p515
aS'http://www.nju.edu.cn/7/list.htm'
p516
aS'http://www.nju.edu.cn/17/list.htm'
p517
aS'http://www.nju.edu.cn/15/list.htm'
p518
aS'http://www.nju.edu.cn/26/list.htm'
p519
aS'http://www.nju.edu.cn/56/list.htm'
p520
aS'http://www.nju.edu.cn/53/list.htm'
p521
aS'http://www.nju.edu.cn/38/list.htm'
p522
aS'http://www.nju.edu.cn/37/list.htm'
p523
aS'http://www.nju.edu.cn/36/list.htm'
p524
aS'http://www.nju.edu.cn/39/list.htm'
p525
aS'http://www.nju.edu.cn/12/list.htm'
p526
aS'http://www.nju.edu.cn/14/list.htm'
p527
aS'http://www.nju.edu.cn/54/list.htm'
p528
aS'http://www.nju.edu.cn/13/list.htm'
p529
aS'http://www.nju.edu.cn/10/list.htm'
p530
aS'http://www.nju.edu.cn/80/list.htm'
p531
aS'http://www.nju.edu.cn/52/list.htm'
p532
aS'http://www.nju.edu.cn/english'
p533
atRp534
sg20
g47
((lp535
S'http://www.nju.edu.cn/25/list.htm'
p536
aS'http://www.nju.edu.cn/5/list.htm'
p537
aS'http://www.nju.edu.cn/main.htm'
p538
aS'http://www.nju.edu.cn/57/list.htm'
p539
aS'http://www.nju.edu.cn/24/list.htm'
p540
aS'http://www.nju.edu.cn/18/list.htm'
p541
aS'http://www.nju.edu.cn/20/list.htm'
p542
aS'http://www.nju.edu.cn'
p543
aS'http://www.nju.edu.cn/79/list.htm'
p544
aS'http://www.nju.edu.cn/19/list.htm'
p545
aS'http://www.nju.edu.cn/51/list.htm'
p546
aS'http://www.nju.edu.cn/9/list.htm'
p547
aS'http://www.nju.edu.cn/16/list.htm'
p548
aS'http://www.nju.edu.cn/27/list.htm'
p549
aS'http://www.nju.edu.cn/6/list.htm'
p550
aS'http://www.nju.edu.cn/8/list.htm'
p551
aS'http://www.nju.edu.cn/7/list.htm'
p552
aS'http://www.nju.edu.cn/17/list.htm'
p553
aS'http://www.nju.edu.cn/15/list.htm'
p554
aS'http://www.nju.edu.cn/26/list.htm'
p555
aS'http://www.nju.edu.cn/56/list.htm'
p556
aS'http://www.nju.edu.cn/53/list.htm'
p557
aS'http://www.nju.edu.cn/38/list.htm'
p558
aS'http://www.nju.edu.cn/37/list.htm'
p559
aS'http://www.nju.edu.cn/36/list.htm'
p560
aS'http://www.nju.edu.cn/39/list.htm'
p561
aS'http://www.nju.edu.cn/12/list.htm'
p562
aS'http://www.nju.edu.cn/14/list.htm'
p563
aS'http://www.nju.edu.cn/54/list.htm'
p564
aS'http://www.nju.edu.cn/13/list.htm'
p565
aS'http://www.nju.edu.cn/10/list.htm'
p566
aS'http://www.nju.edu.cn/80/list.htm'
p567
aS'http://www.nju.edu.cn/52/list.htm'
p568
aS'http://www.nju.edu.cn/english'
p569
atRp570
sg21
g47
((lp571
S'http://www.nju.edu.cn/25/list.htm'
p572
aS'http://www.nju.edu.cn/5/list.htm'
p573
aS'http://www.nju.edu.cn/main.htm'
p574
aS'http://www.nju.edu.cn/57/list.htm'
p575
aS'http://www.nju.edu.cn/24/list.htm'
p576
aS'http://www.nju.edu.cn/18/list.htm'
p577
aS'http://www.nju.edu.cn/20/list.htm'
p578
aS'http://www.nju.edu.cn'
p579
aS'http://www.nju.edu.cn/79/list.htm'
p580
aS'http://www.nju.edu.cn/19/list.htm'
p581
aS'http://www.nju.edu.cn/51/list.htm'
p582
aS'http://www.nju.edu.cn/9/list.htm'
p583
aS'http://www.nju.edu.cn/16/list.htm'
p584
aS'http://www.nju.edu.cn/27/list.htm'
p585
aS'http://www.nju.edu.cn/6/list.htm'
p586
aS'http://www.nju.edu.cn/8/list.htm'
p587
aS'http://www.nju.edu.cn/7/list.htm'
p588
aS'http://www.nju.edu.cn/17/list.htm'
p589
aS'http://www.nju.edu.cn/15/list.htm'
p590
aS'http://www.nju.edu.cn/26/list.htm'
p591
aS'http://www.nju.edu.cn/56/list.htm'
p592
aS'http://www.nju.edu.cn/53/list.htm'
p593
aS'http://www.nju.edu.cn/38/list.htm'
p594
aS'http://www.nju.edu.cn/37/list.htm'
p595
aS'http://www.nju.edu.cn/36/list.htm'
p596
aS'http://www.nju.edu.cn/39/list.htm'
p597
aS'http://www.nju.edu.cn/12/list.htm'
p598
aS'http://www.nju.edu.cn/14/list.htm'
p599
aS'http://www.nju.edu.cn/54/list.htm'
p600
aS'http://www.nju.edu.cn/13/list.htm'
p601
aS'http://www.nju.edu.cn/10/list.htm'
p602
aS'http://www.nju.edu.cn/80/list.htm'
p603
aS'http://www.nju.edu.cn/52/list.htm'
p604
aS'http://www.nju.edu.cn/english'
p605
atRp606
sg22
g47
((lp607
S'http://www.nju.edu.cn/25/list.htm'
p608
aS'http://www.nju.edu.cn/5/list.htm'
p609
aS'http://www.nju.edu.cn/main.htm'
p610
aS'http://www.nju.edu.cn/57/list.htm'
p611
aS'http://www.nju.edu.cn/24/list.htm'
p612
aS'http://www.nju.edu.cn/18/list.htm'
p613
aS'http://www.nju.edu.cn/20/list.htm'
p614
aS'http://www.nju.edu.cn'
p615
aS'http://www.nju.edu.cn/79/list.htm'
p616
aS'http://www.nju.edu.cn/19/list.htm'
p617
aS'http://www.nju.edu.cn/51/list.htm'
p618
aS'http://www.nju.edu.cn/9/list.htm'
p619
aS'http://www.nju.edu.cn/16/list.htm'
p620
aS'http://www.nju.edu.cn/27/list.htm'
p621
aS'http://www.nju.edu.cn/6/list.htm'
p622
aS'http://www.nju.edu.cn/8/list.htm'
p623
aS'http://www.nju.edu.cn/7/list.htm'
p624
aS'http://www.nju.edu.cn/17/list.htm'
p625
aS'http://www.nju.edu.cn/15/list.htm'
p626
aS'http://www.nju.edu.cn/26/list.htm'
p627
aS'http://www.nju.edu.cn/56/list.htm'
p628
aS'http://www.nju.edu.cn/53/list.htm'
p629
aS'http://www.nju.edu.cn/38/list.htm'
p630
aS'http://www.nju.edu.cn/4/list.htm'
p631
aS'http://www.nju.edu.cn/37/list.htm'
p632
aS'http://www.nju.edu.cn/36/list.htm'
p633
aS'http://www.nju.edu.cn/39/list.htm'
p634
aS'http://www.nju.edu.cn/12/list.htm'
p635
aS'http://www.nju.edu.cn/14/list.htm'
p636
aS'http://www.nju.edu.cn/54/list.htm'
p637
aS'http://www.nju.edu.cn/13/list.htm'
p638
aS'http://www.nju.edu.cn/10/list.htm'
p639
aS'http://www.nju.edu.cn/80/list.htm'
p640
aS'http://www.nju.edu.cn/52/list.htm'
p641
aS'http://www.nju.edu.cn/english'
p642
atRp643
sg23
g47
((lp644
S'http://www.nju.edu.cn/25/list.htm'
p645
aS'http://www.nju.edu.cn/5/list.htm'
p646
aS'http://www.nju.edu.cn/main.htm'
p647
aS'http://www.nju.edu.cn/57/list.htm'
p648
aS'http://www.nju.edu.cn/24/list.htm'
p649
aS'http://www.nju.edu.cn/18/list.htm'
p650
aS'http://www.nju.edu.cn/20/list.htm'
p651
aS'http://www.nju.edu.cn'
p652
aS'http://www.nju.edu.cn/79/list.htm'
p653
aS'http://www.nju.edu.cn/19/list.htm'
p654
aS'http://www.nju.edu.cn/51/list.htm'
p655
aS'http://www.nju.edu.cn/9/list.htm'
p656
aS'http://www.nju.edu.cn/16/list.htm'
p657
aS'http://www.nju.edu.cn/27/list.htm'
p658
aS'http://www.nju.edu.cn/6/list.htm'
p659
aS'http://www.nju.edu.cn/8/list.htm'
p660
aS'http://www.nju.edu.cn/7/list.htm'
p661
aS'http://www.nju.edu.cn/17/list.htm'
p662
aS'http://www.nju.edu.cn/15/list.htm'
p663
aS'http://www.nju.edu.cn/26/list.htm'
p664
aS'http://www.nju.edu.cn/56/list.htm'
p665
aS'http://www.nju.edu.cn/53/list.htm'
p666
aS'http://www.nju.edu.cn/38/list.htm'
p667
aS'http://www.nju.edu.cn/37/list.htm'
p668
aS'http://www.nju.edu.cn/36/list.htm'
p669
aS'http://www.nju.edu.cn/39/list.htm'
p670
aS'http://www.nju.edu.cn/12/list.htm'
p671
aS'http://www.nju.edu.cn/14/list.htm'
p672
aS'http://www.nju.edu.cn/54/list.htm'
p673
aS'http://www.nju.edu.cn/13/list.htm'
p674
aS'http://www.nju.edu.cn/10/list.htm'
p675
aS'http://www.nju.edu.cn/80/list.htm'
p676
aS'http://www.nju.edu.cn/52/list.htm'
p677
aS'http://www.nju.edu.cn/english'
p678
atRp679
sg24
g47
((lp680
S'http://www.nju.edu.cn/25/list.htm'
p681
aS'http://www.nju.edu.cn/5/list.htm'
p682
aS'http://www.nju.edu.cn/main.htm'
p683
aS'http://www.nju.edu.cn/57/list.htm'
p684
aS'http://www.nju.edu.cn/24/list.htm'
p685
aS'http://www.nju.edu.cn/18/list.htm'
p686
aS'http://www.nju.edu.cn/20/list.htm'
p687
aS'http://www.nju.edu.cn'
p688
aS'http://www.nju.edu.cn/79/list.htm'
p689
aS'http://www.nju.edu.cn/19/list.htm'
p690
aS'http://www.nju.edu.cn/51/list.htm'
p691
aS'http://www.nju.edu.cn/9/list.htm'
p692
aS'http://www.nju.edu.cn/16/list.htm'
p693
aS'http://www.nju.edu.cn/27/list.htm'
p694
aS'http://www.nju.edu.cn/6/list.htm'
p695
aS'http://www.nju.edu.cn/8/list.htm'
p696
aS'http://www.nju.edu.cn/7/list.htm'
p697
aS'http://www.nju.edu.cn/17/list.htm'
p698
aS'http://www.nju.edu.cn/15/list.htm'
p699
aS'http://www.nju.edu.cn/26/list.htm'
p700
aS'http://www.nju.edu.cn/56/list.htm'
p701
aS'http://www.nju.edu.cn/53/list.htm'
p702
aS'http://www.nju.edu.cn/38/list.htm'
p703
aS'http://www.nju.edu.cn/37/list.htm'
p704
aS'http://www.nju.edu.cn/36/list.htm'
p705
aS'http://www.nju.edu.cn/39/list.htm'
p706
aS'http://www.nju.edu.cn/12/list.htm'
p707
aS'http://www.nju.edu.cn/14/list.htm'
p708
aS'http://www.nju.edu.cn/54/list.htm'
p709
aS'http://www.nju.edu.cn/13/list.htm'
p710
aS'http://www.nju.edu.cn/10/list.htm'
p711
aS'http://www.nju.edu.cn/80/list.htm'
p712
aS'http://www.nju.edu.cn/52/list.htm'
p713
aS'http://www.nju.edu.cn/english'
p714
atRp715
sg25
g47
((lp716
S'http://www.nju.edu.cn/25/list.htm'
p717
aS'http://www.nju.edu.cn/5/list.htm'
p718
aS'http://www.nju.edu.cn/main.htm'
p719
aS'http://www.nju.edu.cn/57/list.htm'
p720
aS'http://www.nju.edu.cn/24/list.htm'
p721
aS'http://www.nju.edu.cn/18/list.htm'
p722
aS'http://www.nju.edu.cn/20/list.htm'
p723
aS'http://www.nju.edu.cn'
p724
aS'http://www.nju.edu.cn/79/list.htm'
p725
aS'http://www.nju.edu.cn/19/list.htm'
p726
aS'http://www.nju.edu.cn/51/list.htm'
p727
aS'http://www.nju.edu.cn/9/list.htm'
p728
aS'http://www.nju.edu.cn/16/list.htm'
p729
aS'http://www.nju.edu.cn/27/list.htm'
p730
aS'http://www.nju.edu.cn/6/list.htm'
p731
aS'http://www.nju.edu.cn/8/list.htm'
p732
aS'http://www.nju.edu.cn/7/list.htm'
p733
aS'http://www.nju.edu.cn/17/list.htm'
p734
aS'http://www.nju.edu.cn/15/list.htm'
p735
aS'http://www.nju.edu.cn/26/list.htm'
p736
aS'http://www.nju.edu.cn/56/list.htm'
p737
aS'http://www.nju.edu.cn/53/list.htm'
p738
aS'http://www.nju.edu.cn/38/list.htm'
p739
aS'http://www.nju.edu.cn/37/list.htm'
p740
aS'http://www.nju.edu.cn/36/list.htm'
p741
aS'http://www.nju.edu.cn/39/list.htm'
p742
aS'http://www.nju.edu.cn/12/list.htm'
p743
aS'http://www.nju.edu.cn/14/list.htm'
p744
aS'http://www.nju.edu.cn/54/list.htm'
p745
aS'http://www.nju.edu.cn/13/list.htm'
p746
aS'http://www.nju.edu.cn/10/list.htm'
p747
aS'http://www.nju.edu.cn/80/list.htm'
p748
aS'http://www.nju.edu.cn/52/list.htm'
p749
aS'http://www.nju.edu.cn/english'
p750
atRp751
sg26
g47
((lp752
S'http://www.nju.edu.cn/25/list.htm'
p753
aS'http://www.nju.edu.cn/5/list.htm'
p754
aS'http://www.nju.edu.cn/main.htm'
p755
aS'http://www.nju.edu.cn/57/list.htm'
p756
aS'http://www.nju.edu.cn/24/list.htm'
p757
aS'http://www.nju.edu.cn/18/list.htm'
p758
aS'http://www.nju.edu.cn/20/list.htm'
p759
aS'http://www.nju.edu.cn'
p760
aS'http://www.nju.edu.cn/79/list.htm'
p761
aS'http://www.nju.edu.cn/19/list.htm'
p762
aS'http://www.nju.edu.cn/51/list.htm'
p763
aS'http://www.nju.edu.cn/9/list.htm'
p764
aS'http://www.nju.edu.cn/2/list.htm'
p765
aS'http://www.nju.edu.cn/16/list.htm'
p766
aS'http://www.nju.edu.cn/27/list.htm'
p767
aS'http://www.nju.edu.cn/6/list.htm'
p768
aS'http://www.nju.edu.cn/8/list.htm'
p769
aS'http://www.nju.edu.cn/7/list.htm'
p770
aS'http://www.nju.edu.cn/17/list.htm'
p771
aS'http://www.nju.edu.cn/15/list.htm'
p772
aS'http://www.nju.edu.cn/26/list.htm'
p773
aS'http://www.nju.edu.cn/56/list.htm'
p774
aS'http://www.nju.edu.cn/53/list.htm'
p775
aS'http://www.nju.edu.cn/38/list.htm'
p776
aS'http://www.nju.edu.cn/37/list.htm'
p777
aS'http://www.nju.edu.cn/36/list.htm'
p778
aS'http://www.nju.edu.cn/39/list.htm'
p779
aS'http://www.nju.edu.cn/12/list.htm'
p780
aS'http://www.nju.edu.cn/14/list.htm'
p781
aS'http://www.nju.edu.cn/54/list.htm'
p782
aS'http://www.nju.edu.cn/13/list.htm'
p783
aS'http://www.nju.edu.cn/10/list.htm'
p784
aS'http://www.nju.edu.cn/80/list.htm'
p785
aS'http://www.nju.edu.cn/52/list.htm'
p786
aS'http://www.nju.edu.cn/english'
p787
atRp788
sg27
g47
((lp789
S'http://www.nju.edu.cn/25/list.htm'
p790
aS'http://www.nju.edu.cn/5/list.htm'
p791
aS'http://www.nju.edu.cn/main.htm'
p792
aS'http://www.nju.edu.cn/57/list.htm'
p793
aS'http://www.nju.edu.cn/24/list.htm'
p794
aS'http://www.nju.edu.cn/18/list.htm'
p795
aS'http://www.nju.edu.cn/20/list.htm'
p796
aS'http://www.nju.edu.cn'
p797
aS'http://www.nju.edu.cn/79/list.htm'
p798
aS'http://www.nju.edu.cn/19/list.htm'
p799
aS'http://www.nju.edu.cn/51/list.htm'
p800
aS'http://www.nju.edu.cn/9/list.htm'
p801
aS'http://www.nju.edu.cn/16/list.htm'
p802
aS'http://www.nju.edu.cn/27/list.htm'
p803
aS'http://www.nju.edu.cn/6/list.htm'
p804
aS'http://www.nju.edu.cn/8/list.htm'
p805
aS'http://www.nju.edu.cn/7/list.htm'
p806
aS'http://www.nju.edu.cn/17/list.htm'
p807
aS'http://www.nju.edu.cn/15/list.htm'
p808
aS'http://www.nju.edu.cn/26/list.htm'
p809
aS'http://www.nju.edu.cn/56/list.htm'
p810
aS'http://www.nju.edu.cn/53/list.htm'
p811
aS'http://www.nju.edu.cn/38/list.htm'
p812
aS'http://www.nju.edu.cn/37/list.htm'
p813
aS'http://www.nju.edu.cn/36/list.htm'
p814
aS'http://www.nju.edu.cn/39/list.htm'
p815
aS'http://www.nju.edu.cn/12/list.htm'
p816
aS'http://www.nju.edu.cn/14/list.htm'
p817
aS'http://www.nju.edu.cn/54/list.htm'
p818
aS'http://www.nju.edu.cn/13/list.htm'
p819
aS'http://www.nju.edu.cn/10/list.htm'
p820
aS'http://www.nju.edu.cn/80/list.htm'
p821
aS'http://www.nju.edu.cn/52/list.htm'
p822
aS'http://www.nju.edu.cn/english'
p823
atRp824
sg28
g47
((lp825
S'http://www.nju.edu.cn/25/list.htm'
p826
aS'http://www.nju.edu.cn/5/list.htm'
p827
aS'http://www.nju.edu.cn/main.htm'
p828
aS'http://www.nju.edu.cn/57/list.htm'
p829
aS'http://www.nju.edu.cn/24/list.htm'
p830
aS'http://www.nju.edu.cn/18/list.htm'
p831
aS'http://www.nju.edu.cn/20/list.htm'
p832
aS'http://www.nju.edu.cn'
p833
aS'http://www.nju.edu.cn/79/list.htm'
p834
aS'http://www.nju.edu.cn/19/list.htm'
p835
aS'http://www.nju.edu.cn/51/list.htm'
p836
aS'http://www.nju.edu.cn/9/list.htm'
p837
aS'http://www.nju.edu.cn/16/list.htm'
p838
aS'http://www.nju.edu.cn/27/list.htm'
p839
aS'http://www.nju.edu.cn/6/list.htm'
p840
aS'http://www.nju.edu.cn/8/list.htm'
p841
aS'http://www.nju.edu.cn/7/list.htm'
p842
aS'http://www.nju.edu.cn/17/list.htm'
p843
aS'http://www.nju.edu.cn/15/list.htm'
p844
aS'http://www.nju.edu.cn/26/list.htm'
p845
aS'http://www.nju.edu.cn/56/list.htm'
p846
aS'http://www.nju.edu.cn/53/list.htm'
p847
aS'http://www.nju.edu.cn/38/list.htm'
p848
aS'http://www.nju.edu.cn/4/list.htm'
p849
aS'http://www.nju.edu.cn/37/list.htm'
p850
aS'http://www.nju.edu.cn/36/list.htm'
p851
aS'http://www.nju.edu.cn/39/list.htm'
p852
aS'http://www.nju.edu.cn/12/list.htm'
p853
aS'http://www.nju.edu.cn/14/list.htm'
p854
aS'http://www.nju.edu.cn/54/list.htm'
p855
aS'http://www.nju.edu.cn/13/list.htm'
p856
aS'http://www.nju.edu.cn/10/list.htm'
p857
aS'http://www.nju.edu.cn/80/list.htm'
p858
aS'http://www.nju.edu.cn/52/list.htm'
p859
aS'http://www.nju.edu.cn/english'
p860
atRp861
sg29
g47
((lp862
S'http://www.nju.edu.cn/25/list.htm'
p863
aS'http://www.nju.edu.cn/5/list.htm'
p864
aS'http://www.nju.edu.cn/01/6c/c56a364/page.htm'
p865
aS'http://www.nju.edu.cn/01/6d/c56a365/page.htm'
p866
aS'http://www.nju.edu.cn/main.htm'
p867
aS'http://www.nju.edu.cn/57/list.htm'
p868
aS'http://www.nju.edu.cn/24/list.htm'
p869
aS'http://www.nju.edu.cn/18/list.htm'
p870
aS'http://www.nju.edu.cn/20/list.htm'
p871
aS'http://www.nju.edu.cn'
p872
aS'http://www.nju.edu.cn/79/list.htm'
p873
aS'http://www.nju.edu.cn/19/list.htm'
p874
aS'http://www.nju.edu.cn/51/list.htm'
p875
aS'http://www.nju.edu.cn/9/list.htm'
p876
aS'http://www.nju.edu.cn/16/list.htm'
p877
aS'http://www.nju.edu.cn/27/list.htm'
p878
aS'http://www.nju.edu.cn/6/list.htm'
p879
aS'http://www.nju.edu.cn/8/list.htm'
p880
aS'http://www.nju.edu.cn/7/list.htm'
p881
aS'http://www.nju.edu.cn/17/list.htm'
p882
aS'http://www.nju.edu.cn/15/list.htm'
p883
aS'http://www.nju.edu.cn/26/list.htm'
p884
aS'http://www.nju.edu.cn/56/list.htm'
p885
aS'http://www.nju.edu.cn/01/6b/c56a363/page.htm'
p886
aS'http://www.nju.edu.cn/53/list.htm'
p887
aS'http://www.nju.edu.cn/38/list.htm'
p888
aS'http://www.nju.edu.cn/37/list.htm'
p889
aS'http://www.nju.edu.cn/36/list.htm'
p890
aS'http://www.nju.edu.cn/39/list.htm'
p891
aS'http://www.nju.edu.cn/12/list.htm'
p892
aS'http://www.nju.edu.cn/14/list.htm'
p893
aS'http://www.nju.edu.cn/54/list.htm'
p894
aS'http://www.nju.edu.cn/13/list.htm'
p895
aS'http://www.nju.edu.cn/10/list.htm'
p896
aS'http://www.nju.edu.cn/80/list.htm'
p897
aS'http://www.nju.edu.cn/52/list.htm'
p898
aS'http://www.nju.edu.cn/english'
p899
atRp900
sg30
g47
((lp901
S'http://www.nju.edu.cn/25/list.htm'
p902
aS'http://www.nju.edu.cn/5/list.htm'
p903
aS'http://www.nju.edu.cn/main.htm'
p904
aS'http://www.nju.edu.cn/57/list.htm'
p905
aS'http://www.nju.edu.cn/24/list.htm'
p906
aS'http://www.nju.edu.cn/18/list.htm'
p907
aS'http://www.nju.edu.cn/20/list.htm'
p908
aS'http://www.nju.edu.cn'
p909
aS'http://www.nju.edu.cn/79/list.htm'
p910
aS'http://www.nju.edu.cn/19/list.htm'
p911
aS'http://www.nju.edu.cn/51/list.htm'
p912
aS'http://www.nju.edu.cn/9/list.htm'
p913
aS'http://www.nju.edu.cn/16/list.htm'
p914
aS'http://www.nju.edu.cn/27/list.htm'
p915
aS'http://www.nju.edu.cn/6/list.htm'
p916
aS'http://www.nju.edu.cn/8/list.htm'
p917
aS'http://www.nju.edu.cn/7/list.htm'
p918
aS'http://www.nju.edu.cn/17/list.htm'
p919
aS'http://www.nju.edu.cn/15/list.htm'
p920
aS'http://www.nju.edu.cn/26/list.htm'
p921
aS'http://www.nju.edu.cn/56/list.htm'
p922
aS'http://www.nju.edu.cn/53/list.htm'
p923
aS'http://www.nju.edu.cn/38/list.htm'
p924
aS'http://www.nju.edu.cn/37/list.htm'
p925
aS'http://www.nju.edu.cn/36/list.htm'
p926
aS'http://www.nju.edu.cn/39/list.htm'
p927
aS'http://www.nju.edu.cn/12/list.htm'
p928
aS'http://www.nju.edu.cn/14/list.htm'
p929
aS'http://www.nju.edu.cn/54/list.htm'
p930
aS'http://www.nju.edu.cn/13/list.htm'
p931
aS'http://www.nju.edu.cn/10/list.htm'
p932
aS'http://www.nju.edu.cn/80/list.htm'
p933
aS'http://www.nju.edu.cn/52/list.htm'
p934
aS'http://www.nju.edu.cn/english'
p935
atRp936
sg31
g47
((lp937
S'http://www.nju.edu.cn/25/list.htm'
p938
aS'http://www.nju.edu.cn/5/list.htm'
p939
aS'http://www.nju.edu.cn/main.htm'
p940
aS'http://www.nju.edu.cn/57/list.htm'
p941
aS'http://www.nju.edu.cn/24/list.htm'
p942
aS'http://www.nju.edu.cn/18/list.htm'
p943
aS'http://www.nju.edu.cn/20/list.htm'
p944
aS'http://www.nju.edu.cn'
p945
aS'http://www.nju.edu.cn/79/list.htm'
p946
aS'http://www.nju.edu.cn/19/list.htm'
p947
aS'http://www.nju.edu.cn/51/list.htm'
p948
aS'http://www.nju.edu.cn/9/list.htm'
p949
aS'http://www.nju.edu.cn/16/list.htm'
p950
aS'http://www.nju.edu.cn/27/list.htm'
p951
aS'http://www.nju.edu.cn/6/list.htm'
p952
aS'http://www.nju.edu.cn/8/list.htm'
p953
aS'http://www.nju.edu.cn/7/list.htm'
p954
aS'http://www.nju.edu.cn/17/list.htm'
p955
aS'http://www.nju.edu.cn/15/list.htm'
p956
aS'http://www.nju.edu.cn/26/list.htm'
p957
aS'http://www.nju.edu.cn/56/list.htm'
p958
aS'http://www.nju.edu.cn/53/list.htm'
p959
aS'http://www.nju.edu.cn/38/list.htm'
p960
aS'http://www.nju.edu.cn/37/list.htm'
p961
aS'http://www.nju.edu.cn/36/list.htm'
p962
aS'http://www.nju.edu.cn/39/list.htm'
p963
aS'http://www.nju.edu.cn/12/list.htm'
p964
aS'http://www.nju.edu.cn/14/list.htm'
p965
aS'http://www.nju.edu.cn/54/list.htm'
p966
aS'http://www.nju.edu.cn/13/list.htm'
p967
aS'http://www.nju.edu.cn/10/list.htm'
p968
aS'http://www.nju.edu.cn/80/list.htm'
p969
aS'http://www.nju.edu.cn/52/list.htm'
p970
aS'http://www.nju.edu.cn/english'
p971
atRp972
sg32
g47
((lp973
S'http://www.nju.edu.cn/25/list.htm'
p974
aS'http://www.nju.edu.cn/5/list.htm'
p975
aS'http://www.nju.edu.cn/main.htm'
p976
aS'http://www.nju.edu.cn/57/list.htm'
p977
aS'http://www.nju.edu.cn/24/list.htm'
p978
aS'http://www.nju.edu.cn/18/list.htm'
p979
aS'http://www.nju.edu.cn/20/list.htm'
p980
aS'http://www.nju.edu.cn'
p981
aS'http://www.nju.edu.cn/79/list.htm'
p982
aS'http://www.nju.edu.cn/19/list.htm'
p983
aS'http://www.nju.edu.cn/3/list.htm'
p984
aS'http://www.nju.edu.cn/51/list.htm'
p985
aS'http://www.nju.edu.cn/9/list.htm'
p986
aS'http://www.nju.edu.cn/16/list.htm'
p987
aS'http://www.nju.edu.cn/27/list.htm'
p988
aS'http://www.nju.edu.cn/6/list.htm'
p989
aS'http://www.nju.edu.cn/8/list.htm'
p990
aS'http://www.nju.edu.cn/7/list.htm'
p991
aS'http://www.nju.edu.cn/17/list.htm'
p992
aS'http://www.nju.edu.cn/15/list.htm'
p993
aS'http://www.nju.edu.cn/26/list.htm'
p994
aS'http://www.nju.edu.cn/56/list.htm'
p995
aS'http://www.nju.edu.cn/53/list.htm'
p996
aS'http://www.nju.edu.cn/38/list.htm'
p997
aS'http://www.nju.edu.cn/06/9a/c20a1690/page.htm'
p998
aS'http://www.nju.edu.cn/37/list.htm'
p999
aS'http://www.nju.edu.cn/36/list.htm'
p1000
aS'http://www.nju.edu.cn/39/list.htm'
p1001
aS'http://www.nju.edu.cn/12/list.htm'
p1002
aS'http://www.nju.edu.cn/14/list.htm'
p1003
aS'http://www.nju.edu.cn/54/list.htm'
p1004
aS'http://www.nju.edu.cn/13/list.htm'
p1005
aS'http://www.nju.edu.cn/10/list.htm'
p1006
aS'http://www.nju.edu.cn/80/list.htm'
p1007
aS'http://www.nju.edu.cn/52/list.htm'
p1008
aS'http://www.nju.edu.cn/english'
p1009
atRp1010
sg33
g47
((lp1011
S'http://www.nju.edu.cn/25/list.htm'
p1012
aS'http://www.nju.edu.cn/5/list.htm'
p1013
aS'http://www.nju.edu.cn/main.htm'
p1014
aS'http://www.nju.edu.cn/57/list.htm'
p1015
aS'http://www.nju.edu.cn/24/list.htm'
p1016
aS'http://www.nju.edu.cn/18/list.htm'
p1017
aS'http://www.nju.edu.cn/20/list.htm'
p1018
aS'http://www.nju.edu.cn'
p1019
aS'http://www.nju.edu.cn/79/list.htm'
p1020
aS'http://www.nju.edu.cn/19/list.htm'
p1021
aS'http://www.nju.edu.cn/51/list.htm'
p1022
aS'http://www.nju.edu.cn/9/list.htm'
p1023
aS'http://www.nju.edu.cn/16/list.htm'
p1024
aS'http://www.nju.edu.cn/27/list.htm'
p1025
aS'http://www.nju.edu.cn/6/list.htm'
p1026
aS'http://www.nju.edu.cn/8/list.htm'
p1027
aS'http://www.nju.edu.cn/7/list.htm'
p1028
aS'http://www.nju.edu.cn/17/list.htm'
p1029
aS'http://www.nju.edu.cn/15/list.htm'
p1030
aS'http://www.nju.edu.cn/26/list.htm'
p1031
aS'http://www.nju.edu.cn/56/list.htm'
p1032
aS'http://www.nju.edu.cn/53/list.htm'
p1033
aS'http://www.nju.edu.cn/38/list.htm'
p1034
aS'http://www.nju.edu.cn/37/list.htm'
p1035
aS'http://www.nju.edu.cn/36/list.htm'
p1036
aS'http://www.nju.edu.cn/39/list.htm'
p1037
aS'http://www.nju.edu.cn/12/list.htm'
p1038
aS'http://www.nju.edu.cn/14/list.htm'
p1039
aS'http://www.nju.edu.cn/54/list.htm'
p1040
aS'http://www.nju.edu.cn/13/list.htm'
p1041
aS'http://www.nju.edu.cn/10/list.htm'
p1042
aS'http://www.nju.edu.cn/80/list.htm'
p1043
aS'http://www.nju.edu.cn/52/list.htm'
p1044
aS'http://www.nju.edu.cn/english'
p1045
atRp1046
sg34
g47
((lp1047
S'http://www.nju.edu.cn/25/list.htm'
p1048
aS'http://www.nju.edu.cn/5/list.htm'
p1049
aS'http://www.nju.edu.cn/main.htm'
p1050
aS'http://www.nju.edu.cn/57/list.htm'
p1051
aS'http://www.nju.edu.cn/24/list.htm'
p1052
aS'http://www.nju.edu.cn/18/list.htm'
p1053
aS'http://www.nju.edu.cn/20/list.htm'
p1054
aS'http://www.nju.edu.cn'
p1055
aS'http://www.nju.edu.cn/79/list.htm'
p1056
aS'http://www.nju.edu.cn/19/list.htm'
p1057
aS'http://www.nju.edu.cn/51/list.htm'
p1058
aS'http://www.nju.edu.cn/9/list.htm'
p1059
aS'http://www.nju.edu.cn/16/list.htm'
p1060
aS'http://www.nju.edu.cn/27/list.htm'
p1061
aS'http://www.nju.edu.cn/6/list.htm'
p1062
aS'http://www.nju.edu.cn/8/list.htm'
p1063
aS'http://www.nju.edu.cn/7/list.htm'
p1064
aS'http://www.nju.edu.cn/17/list.htm'
p1065
aS'http://www.nju.edu.cn/15/list.htm'
p1066
aS'http://www.nju.edu.cn/26/list.htm'
p1067
aS'http://www.nju.edu.cn/56/list.htm'
p1068
aS'http://www.nju.edu.cn/53/list.htm'
p1069
aS'http://www.nju.edu.cn/38/list.htm'
p1070
aS'http://www.nju.edu.cn/37/list.htm'
p1071
aS'http://www.nju.edu.cn/36/list.htm'
p1072
aS'http://www.nju.edu.cn/39/list.htm'
p1073
aS'http://www.nju.edu.cn/12/list.htm'
p1074
aS'http://www.nju.edu.cn/14/list.htm'
p1075
aS'http://www.nju.edu.cn/54/list.htm'
p1076
aS'http://www.nju.edu.cn/13/list.htm'
p1077
aS'http://www.nju.edu.cn/10/list.htm'
p1078
aS'http://www.nju.edu.cn/80/list.htm'
p1079
aS'http://www.nju.edu.cn/52/list.htm'
p1080
aS'http://www.nju.edu.cn/english'
p1081
atRp1082
sg35
g47
((lp1083
S'http://www.nju.edu.cn/25/list.htm'
p1084
aS'http://www.nju.edu.cn/5/list.htm'
p1085
aS'http://www.nju.edu.cn/main.htm'
p1086
aS'http://www.nju.edu.cn/57/list.htm'
p1087
aS'http://www.nju.edu.cn/24/list.htm'
p1088
aS'http://www.nju.edu.cn/18/list.htm'
p1089
aS'http://www.nju.edu.cn/20/list.htm'
p1090
aS'http://www.nju.edu.cn'
p1091
aS'http://www.nju.edu.cn/79/list.htm'
p1092
aS'http://www.nju.edu.cn/19/list.htm'
p1093
aS'http://www.nju.edu.cn/51/list.htm'
p1094
aS'http://www.nju.edu.cn/9/list.htm'
p1095
aS'http://www.nju.edu.cn/16/list.htm'
p1096
aS'http://www.nju.edu.cn/27/list.htm'
p1097
aS'http://www.nju.edu.cn/6/list.htm'
p1098
aS'http://www.nju.edu.cn/8/list.htm'
p1099
aS'http://www.nju.edu.cn/7/list.htm'
p1100
aS'http://www.nju.edu.cn/17/list.htm'
p1101
aS'http://www.nju.edu.cn/15/list.htm'
p1102
aS'http://www.nju.edu.cn/26/list.htm'
p1103
aS'http://www.nju.edu.cn/56/list.htm'
p1104
aS'http://www.nju.edu.cn/53/list.htm'
p1105
aS'http://www.nju.edu.cn/38/list.htm'
p1106
aS'http://www.nju.edu.cn/37/list.htm'
p1107
aS'http://www.nju.edu.cn/36/list.htm'
p1108
aS'http://www.nju.edu.cn/39/list.htm'
p1109
aS'http://www.nju.edu.cn/12/list.htm'
p1110
aS'http://www.nju.edu.cn/14/list.htm'
p1111
aS'http://www.nju.edu.cn/54/list.htm'
p1112
aS'http://www.nju.edu.cn/13/list.htm'
p1113
aS'http://www.nju.edu.cn/10/list.htm'
p1114
aS'http://www.nju.edu.cn/80/list.htm'
p1115
aS'http://www.nju.edu.cn/52/list.htm'
p1116
aS'http://www.nju.edu.cn/english'
p1117
atRp1118
sg36
g47
((lp1119
S'http://www.nju.edu.cn/25/list.htm'
p1120
aS'http://www.nju.edu.cn/5/list.htm'
p1121
aS'http://www.nju.edu.cn/main.htm'
p1122
aS'http://www.nju.edu.cn/57/list.htm'
p1123
aS'http://www.nju.edu.cn/24/list.htm'
p1124
aS'http://www.nju.edu.cn/18/list.htm'
p1125
aS'http://www.nju.edu.cn/20/list.htm'
p1126
aS'http://www.nju.edu.cn'
p1127
aS'http://www.nju.edu.cn/79/list.htm'
p1128
aS'http://www.nju.edu.cn/19/list.htm'
p1129
aS'http://www.nju.edu.cn/51/list.htm'
p1130
aS'http://www.nju.edu.cn/9/list.htm'
p1131
aS'http://www.nju.edu.cn/2/list.htm'
p1132
aS'http://www.nju.edu.cn/16/list.htm'
p1133
aS'http://www.nju.edu.cn/27/list.htm'
p1134
aS'http://www.nju.edu.cn/6/list.htm'
p1135
aS'http://www.nju.edu.cn/8/list.htm'
p1136
aS'http://www.nju.edu.cn/7/list.htm'
p1137
aS'http://www.nju.edu.cn/17/list.htm'
p1138
aS'http://www.nju.edu.cn/15/list.htm'
p1139
aS'http://www.nju.edu.cn/26/list.htm'
p1140
aS'http://www.nju.edu.cn/56/list.htm'
p1141
aS'http://www.nju.edu.cn/53/list.htm'
p1142
aS'http://www.nju.edu.cn/38/list.htm'
p1143
aS'http://www.nju.edu.cn/37/list.htm'
p1144
aS'http://www.nju.edu.cn/36/list.htm'
p1145
aS'http://www.nju.edu.cn/39/list.htm'
p1146
aS'http://www.nju.edu.cn/12/list.htm'
p1147
aS'http://www.nju.edu.cn/14/list.htm'
p1148
aS'http://www.nju.edu.cn/54/list.htm'
p1149
aS'http://www.nju.edu.cn/13/list.htm'
p1150
aS'http://www.nju.edu.cn/10/list.htm'
p1151
aS'http://www.nju.edu.cn/80/list.htm'
p1152
aS'http://www.nju.edu.cn/52/list.htm'
p1153
aS'http://www.nju.edu.cn/english'
p1154
atRp1155
sg37
g47
((lp1156
S'http://www.nju.edu.cn/25/list.htm'
p1157
aS'http://www.nju.edu.cn/5/list.htm'
p1158
aS'http://www.nju.edu.cn/57/list.htm'
p1159
aS'http://www.nju.edu.cn/24/list.htm'
p1160
aS'http://www.nju.edu.cn/18/list.htm'
p1161
aS'http://www.nju.edu.cn/20/list.htm'
p1162
aS'http://www.nju.edu.cn'
p1163
aS'http://www.nju.edu.cn/79/list.htm'
p1164
aS'http://www.nju.edu.cn/19/list.htm'
p1165
aS'http://www.nju.edu.cn/51/list.htm'
p1166
aS'http://www.nju.edu.cn/9/list.htm'
p1167
aS'http://www.nju.edu.cn/16/list.htm'
p1168
aS'http://www.nju.edu.cn/27/list.htm'
p1169
aS'http://www.nju.edu.cn/6/list.htm'
p1170
aS'http://www.nju.edu.cn/8/list.htm'
p1171
aS'http://www.nju.edu.cn/7/list.htm'
p1172
aS'http://www.nju.edu.cn/17/list.htm'
p1173
aS'http://www.nju.edu.cn/15/list.htm'
p1174
aS'http://www.nju.edu.cn/26/list.htm'
p1175
aS'http://www.nju.edu.cn/56/list.htm'
p1176
aS'http://www.nju.edu.cn/53/list.htm'
p1177
aS'http://www.nju.edu.cn/38/list.htm'
p1178
aS'http://www.nju.edu.cn/37/list.htm'
p1179
aS'http://www.nju.edu.cn/36/list.htm'
p1180
aS'http://www.nju.edu.cn/39/list.htm'
p1181
aS'http://www.nju.edu.cn/12/list.htm'
p1182
aS'http://www.nju.edu.cn/14/list.htm'
p1183
aS'http://www.nju.edu.cn/54/list.htm'
p1184
aS'http://www.nju.edu.cn/13/list.htm'
p1185
aS'http://www.nju.edu.cn/10/list.htm'
p1186
aS'http://www.nju.edu.cn/80/list.htm'
p1187
aS'http://www.nju.edu.cn/52/list.htm'
p1188
aS'http://www.nju.edu.cn/english'
p1189
atRp1190
sg38
g47
((lp1191
S'http://www.nju.edu.cn/25/list.htm'
p1192
aS'http://www.nju.edu.cn/5/list.htm'
p1193
aS'http://www.nju.edu.cn/main.htm'
p1194
aS'http://www.nju.edu.cn/57/list.htm'
p1195
aS'http://www.nju.edu.cn/24/list.htm'
p1196
aS'http://www.nju.edu.cn/18/list.htm'
p1197
aS'http://www.nju.edu.cn/20/list.htm'
p1198
aS'http://www.nju.edu.cn'
p1199
aS'http://www.nju.edu.cn/79/list.htm'
p1200
aS'http://www.nju.edu.cn/19/list.htm'
p1201
aS'http://www.nju.edu.cn/51/list.htm'
p1202
aS'http://www.nju.edu.cn/9/list.htm'
p1203
aS'http://www.nju.edu.cn/16/list.htm'
p1204
aS'http://www.nju.edu.cn/27/list.htm'
p1205
aS'http://www.nju.edu.cn/6/list.htm'
p1206
aS'http://www.nju.edu.cn/english'
p1207
aS'http://www.nju.edu.cn/8/list.htm'
p1208
aS'http://www.nju.edu.cn/7/list.htm'
p1209
aS'http://www.nju.edu.cn/17/list.htm'
p1210
aS'http://www.nju.edu.cn/15/list.htm'
p1211
aS'http://www.nju.edu.cn/26/list.htm'
p1212
aS'http://www.nju.edu.cn/56/list.htm'
p1213
aS'http://www.nju.edu.cn/53/list.htm'
p1214
aS'http://www.nju.edu.cn/38/list.htm'
p1215
aS'http://www.nju.edu.cn/37/list.htm'
p1216
aS'http://www.nju.edu.cn/36/list.htm'
p1217
aS'http://www.nju.edu.cn/39/list.htm'
p1218
aS'http://www.nju.edu.cn/12/list.htm'
p1219
aS'http://www.nju.edu.cn/14/list.htm'
p1220
aS'http://www.nju.edu.cn/13/list.htm'
p1221
aS'http://www.nju.edu.cn/10/list.htm'
p1222
aS'http://www.nju.edu.cn/80/list.htm'
p1223
aS'http://www.nju.edu.cn/52/list.htm'
p1224
aS'http://www.nju.edu.cn/54/list.htm'
p1225
atRp1226
sg39
g47
((lp1227
S'http://www.nju.edu.cn/25/list.htm'
p1228
aS'http://www.nju.edu.cn/5/list.htm'
p1229
aS'http://www.nju.edu.cn/main.htm'
p1230
aS'http://www.nju.edu.cn/57/list.htm'
p1231
aS'http://www.nju.edu.cn/24/list.htm'
p1232
aS'http://www.nju.edu.cn/18/list.htm'
p1233
aS'http://www.nju.edu.cn/20/list.htm'
p1234
aS'http://www.nju.edu.cn'
p1235
aS'http://www.nju.edu.cn/79/list.htm'
p1236
aS'http://www.nju.edu.cn/19/list.htm'
p1237
aS'http://www.nju.edu.cn/51/list.htm'
p1238
aS'http://www.nju.edu.cn/9/list.htm'
p1239
aS'http://www.nju.edu.cn/2/list.htm'
p1240
aS'http://www.nju.edu.cn/16/list.htm'
p1241
aS'http://www.nju.edu.cn/27/list.htm'
p1242
aS'http://www.nju.edu.cn/6/list.htm'
p1243
aS'http://www.nju.edu.cn/8/list.htm'
p1244
aS'http://www.nju.edu.cn/7/list.htm'
p1245
aS'http://www.nju.edu.cn/17/list.htm'
p1246
aS'http://www.nju.edu.cn/15/list.htm'
p1247
aS'http://www.nju.edu.cn/26/list.htm'
p1248
aS'http://www.nju.edu.cn/56/list.htm'
p1249
aS'http://www.nju.edu.cn/53/list.htm'
p1250
aS'http://www.nju.edu.cn/38/list.htm'
p1251
aS'http://www.nju.edu.cn/37/list.htm'
p1252
aS'http://www.nju.edu.cn/36/list.htm'
p1253
aS'http://www.nju.edu.cn/39/list.htm'
p1254
aS'http://www.nju.edu.cn/12/list.htm'
p1255
aS'http://www.nju.edu.cn/14/list.htm'
p1256
aS'http://www.nju.edu.cn/54/list.htm'
p1257
aS'http://www.nju.edu.cn/13/list.htm'
p1258
aS'http://www.nju.edu.cn/10/list.htm'
p1259
aS'http://www.nju.edu.cn/80/list.htm'
p1260
aS'http://www.nju.edu.cn/52/list.htm'
p1261
aS'http://www.nju.edu.cn/english'
p1262
atRp1263
sg40
g47
((lp1264
S'http://www.nju.edu.cn/25/list.htm'
p1265
aS'http://www.nju.edu.cn/5/list.htm'
p1266
aS'http://www.nju.edu.cn/main.htm'
p1267
aS'http://www.nju.edu.cn/57/list.htm'
p1268
aS'http://www.nju.edu.cn/24/list.htm'
p1269
aS'http://www.nju.edu.cn/18/list.htm'
p1270
aS'http://www.nju.edu.cn/20/list.htm'
p1271
aS'http://www.nju.edu.cn'
p1272
aS'http://www.nju.edu.cn/79/list.htm'
p1273
aS'http://www.nju.edu.cn/19/list.htm'
p1274
aS'http://www.nju.edu.cn/51/list.htm'
p1275
aS'http://www.nju.edu.cn/9/list.htm'
p1276
aS'http://www.nju.edu.cn/16/list.htm'
p1277
aS'http://www.nju.edu.cn/27/list.htm'
p1278
aS'http://www.nju.edu.cn/6/list.htm'
p1279
aS'http://www.nju.edu.cn/8/list.htm'
p1280
aS'http://www.nju.edu.cn/7/list.htm'
p1281
aS'http://www.nju.edu.cn/17/list.htm'
p1282
aS'http://www.nju.edu.cn/15/list.htm'
p1283
aS'http://www.nju.edu.cn/26/list.htm'
p1284
aS'http://www.nju.edu.cn/56/list.htm'
p1285
aS'http://www.nju.edu.cn/53/list.htm'
p1286
aS'http://www.nju.edu.cn/38/list.htm'
p1287
aS'http://www.nju.edu.cn/37/list.htm'
p1288
aS'http://www.nju.edu.cn/36/list.htm'
p1289
aS'http://www.nju.edu.cn/39/list.htm'
p1290
aS'http://www.nju.edu.cn/12/list.htm'
p1291
aS'http://www.nju.edu.cn/14/list.htm'
p1292
aS'http://www.nju.edu.cn/54/list.htm'
p1293
aS'http://www.nju.edu.cn/13/list.htm'
p1294
aS'http://www.nju.edu.cn/10/list.htm'
p1295
aS'http://www.nju.edu.cn/80/list.htm'
p1296
aS'http://www.nju.edu.cn/52/list.htm'
p1297
aS'http://www.nju.edu.cn/english'
p1298
atRp1299
sg41
g47
((lp1300
S'http://www.nju.edu.cn/25/list.htm'
p1301
aS'http://www.nju.edu.cn/5/list.htm'
p1302
aS'http://www.nju.edu.cn/main.htm'
p1303
aS'http://www.nju.edu.cn/57/list.htm'
p1304
aS'http://www.nju.edu.cn/24/list.htm'
p1305
aS'http://www.nju.edu.cn/18/list.htm'
p1306
aS'http://www.nju.edu.cn/20/list.htm'
p1307
aS'http://www.nju.edu.cn'
p1308
aS'http://www.nju.edu.cn/79/list.htm'
p1309
aS'http://www.nju.edu.cn/19/list.htm'
p1310
aS'http://www.nju.edu.cn/51/list.htm'
p1311
aS'http://www.nju.edu.cn/9/list.htm'
p1312
aS'http://www.nju.edu.cn/16/list.htm'
p1313
aS'http://www.nju.edu.cn/27/list.htm'
p1314
aS'http://www.nju.edu.cn/6/list.htm'
p1315
aS'http://www.nju.edu.cn/8/list.htm'
p1316
aS'http://www.nju.edu.cn/7/list.htm'
p1317
aS'http://www.nju.edu.cn/17/list.htm'
p1318
aS'http://www.nju.edu.cn/15/list.htm'
p1319
aS'http://www.nju.edu.cn/26/list.htm'
p1320
aS'http://www.nju.edu.cn/56/list.htm'
p1321
aS'http://www.nju.edu.cn/53/list.htm'
p1322
aS'http://www.nju.edu.cn/38/list.htm'
p1323
aS'http://www.nju.edu.cn/37/list.htm'
p1324
aS'http://www.nju.edu.cn/36/list.htm'
p1325
aS'http://www.nju.edu.cn/39/list.htm'
p1326
aS'http://www.nju.edu.cn/12/list.htm'
p1327
aS'http://www.nju.edu.cn/14/list.htm'
p1328
aS'http://www.nju.edu.cn/54/list.htm'
p1329
aS'http://www.nju.edu.cn/13/list.htm'
p1330
aS'http://www.nju.edu.cn/10/list.htm'
p1331
aS'http://www.nju.edu.cn/80/list.htm'
p1332
aS'http://www.nju.edu.cn/52/list.htm'
p1333
aS'http://www.nju.edu.cn/english'
p1334
atRp1335
sg42
g47
((lp1336
S'http://www.nju.edu.cn/25/list.htm'
p1337
aS'http://www.nju.edu.cn/5/list.htm'
p1338
aS'http://www.nju.edu.cn/main.htm'
p1339
aS'http://www.nju.edu.cn/57/list.htm'
p1340
aS'http://www.nju.edu.cn/24/list.htm'
p1341
aS'http://www.nju.edu.cn/18/list.htm'
p1342
aS'http://www.nju.edu.cn/20/list.htm'
p1343
aS'http://www.nju.edu.cn'
p1344
aS'http://www.nju.edu.cn/79/list.htm'
p1345
aS'http://www.nju.edu.cn/19/list.htm'
p1346
aS'http://www.nju.edu.cn/51/list.htm'
p1347
aS'http://www.nju.edu.cn/9/list.htm'
p1348
aS'http://www.nju.edu.cn/16/list.htm'
p1349
aS'http://www.nju.edu.cn/27/list.htm'
p1350
aS'http://www.nju.edu.cn/6/list.htm'
p1351
aS'http://www.nju.edu.cn/8/list.htm'
p1352
aS'http://www.nju.edu.cn/7/list.htm'
p1353
aS'http://www.nju.edu.cn/17/list.htm'
p1354
aS'http://www.nju.edu.cn/15/list.htm'
p1355
aS'http://www.nju.edu.cn/26/list.htm'
p1356
aS'http://www.nju.edu.cn/56/list.htm'
p1357
aS'http://www.nju.edu.cn/53/list.htm'
p1358
aS'http://www.nju.edu.cn/38/list.htm'
p1359
aS'http://www.nju.edu.cn/37/list.htm'
p1360
aS'http://www.nju.edu.cn/36/list.htm'
p1361
aS'http://www.nju.edu.cn/39/list.htm'
p1362
aS'http://www.nju.edu.cn/12/list.htm'
p1363
aS'http://www.nju.edu.cn/14/list.htm'
p1364
aS'http://www.nju.edu.cn/54/list.htm'
p1365
aS'http://www.nju.edu.cn/13/list.htm'
p1366
aS'http://www.nju.edu.cn/10/list.htm'
p1367
aS'http://www.nju.edu.cn/80/list.htm'
p1368
aS'http://www.nju.edu.cn/52/list.htm'
p1369
aS'http://www.nju.edu.cn/english'
p1370
atRp1371
sS'http://www.nju.edu.cn/english'
p1372
g47
((lp1373
S'http://www.nju.edu.cn/english'
p1374
atRp1375
sg44
g47
((lp1376
S'http://www.nju.edu.cn/25/list.htm'
p1377
aS'http://www.nju.edu.cn/5/list.htm'
p1378
aS'http://www.nju.edu.cn/main.htm'
p1379
aS'http://www.nju.edu.cn/57/list.htm'
p1380
aS'http://www.nju.edu.cn/24/list.htm'
p1381
aS'http://www.nju.edu.cn/18/list.htm'
p1382
aS'http://www.nju.edu.cn/20/list.htm'
p1383
aS'http://www.nju.edu.cn'
p1384
aS'http://www.nju.edu.cn/79/list.htm'
p1385
aS'http://www.nju.edu.cn/19/list.htm'
p1386
aS'http://www.nju.edu.cn/3/list.htm'
p1387
aS'http://www.nju.edu.cn/51/list.htm'
p1388
aS'http://www.nju.edu.cn/9/list.htm'
p1389
aS'http://www.nju.edu.cn/16/list.htm'
p1390
aS'http://www.nju.edu.cn/27/list.htm'
p1391
aS'http://www.nju.edu.cn/6/list.htm'
p1392
aS'http://www.nju.edu.cn/8/list.htm'
p1393
aS'http://www.nju.edu.cn/7/list.htm'
p1394
aS'http://www.nju.edu.cn/17/list.htm'
p1395
aS'http://www.nju.edu.cn/15/list.htm'
p1396
aS'http://www.nju.edu.cn/26/list.htm'
p1397
aS'http://www.nju.edu.cn/56/list.htm'
p1398
aS'http://www.nju.edu.cn/53/list.htm'
p1399
aS'http://www.nju.edu.cn/38/list.htm'
p1400
aS'http://www.nju.edu.cn/37/list.htm'
p1401
aS'http://www.nju.edu.cn/36/list.htm'
p1402
aS'http://www.nju.edu.cn/39/list.htm'
p1403
aS'http://www.nju.edu.cn/12/list.htm'
p1404
aS'http://www.nju.edu.cn/14/list.htm'
p1405
aS'http://www.nju.edu.cn/54/list.htm'
p1406
aS'http://www.nju.edu.cn/13/list.htm'
p1407
aS'http://www.nju.edu.cn/10/list.htm'
p1408
aS'http://www.nju.edu.cn/00/af/c20a175/page.htm'
p1409
aS'http://www.nju.edu.cn/80/list.htm'
p1410
aS'http://www.nju.edu.cn/52/list.htm'
p1411
aS'http://www.nju.edu.cn/english'
p1412
atRp1413
s(dp1414
g14
g47
((lp1415
g313
ag314
ag316
ag317
ag318
ag319
ag320
ag334
ag322
ag323
ag324
ag325
ag326
ag327
ag347
ag328
ag329
ag330
ag331
ag332
ag333
ag321
ag335
ag337
ag338
ag339
ag340
ag341
ag343
ag344
ag345
ag346
ag342
atRp1416
sg8
g47
((lp1417
g89
ag90
ag92
ag93
ag94
ag95
ag96
ag110
ag98
ag99
ag100
ag101
ag102
ag103
ag122
ag104
ag105
ag106
ag107
ag108
ag109
ag97
ag111
ag112
ag113
ag114
ag115
ag116
ag118
ag119
ag120
ag121
ag117
atRp1418
sg9
g47
((lp1419
g126
ag138
ag129
ag130
ag131
ag139
ag132
ag133
ag148
ag135
ag137
ag125
ag146
ag140
ag141
ag160
ag142
ag143
ag144
ag145
ag127
ag147
ag134
ag149
ag150
ag151
ag152
ag153
ag154
ag156
ag157
ag158
ag159
ag155
atRp1420
sg10
g47
((lp1421
g163
ag164
ag166
ag167
ag168
ag169
ag170
ag184
ag172
ag173
ag174
ag175
ag176
ag177
ag196
ag178
ag179
ag180
ag181
ag182
ag183
ag171
ag185
ag186
ag187
ag188
ag189
ag190
ag192
ag193
ag194
ag195
ag191
atRp1422
sg11
g47
((lp1423
g199
ag200
ag202
ag203
ag204
ag205
ag206
ag220
ag208
ag209
ag210
ag211
ag212
ag213
ag232
ag214
ag215
ag216
ag217
ag218
ag219
ag207
ag221
ag222
ag223
ag224
ag225
ag226
ag228
ag229
ag230
ag231
ag227
atRp1424
sg12
g47
((lp1425
g235
ag236
ag238
ag239
ag240
ag241
ag242
ag257
ag244
ag245
ag246
ag248
ag249
ag250
ag269
ag251
ag252
ag253
ag254
ag255
ag256
ag243
ag258
ag259
ag260
ag261
ag262
ag263
ag265
ag266
ag267
ag268
ag264
atRp1426
sg13
g47
((lp1427
g272
ag273
ag306
ag276
ag277
ag278
ag279
ag280
ag281
ag296
ag309
ag284
ag285
ag286
ag287
ag288
ag289
ag310
ag290
ag291
ag292
ag293
ag274
ag295
ag282
ag297
ag298
ag299
ag300
ag301
ag294
ag303
ag305
ag302
ag307
ag308
ag283
ag304
atRp1428
sg2
g47
((lp1429
S'http://www.nju.edu.cn'
p1430
ag8
ag9
ag10
ag11
ag12
ag13
ag14
ag15
ag16
ag17
ag18
ag19
ag20
ag21
ag22
ag23
ag24
ag25
ag26
ag27
ag28
ag29
ag30
ag31
ag32
ag33
ag34
ag35
ag36
ag37
ag38
ag39
ag40
ag41
ag42
aS'http://www.nju.edu.cn/english'
p1431
ag44
atRp1432
sg15
g47
((lp1433
g350
ag351
ag353
ag354
ag355
ag356
ag357
ag378
ag373
ag360
ag362
ag363
ag364
ag365
ag366
ag385
ag367
ag368
ag369
ag370
ag371
ag372
ag359
ag374
ag375
ag376
ag377
ag358
ag379
ag381
ag382
ag383
ag384
ag380
atRp1434
sg16
g47
((lp1435
g388
ag389
ag391
ag392
ag393
ag394
ag395
ag409
ag397
ag398
ag399
ag400
ag401
ag402
ag421
ag403
ag404
ag405
ag406
ag407
ag408
ag396
ag410
ag411
ag412
ag413
ag414
ag415
ag417
ag418
ag419
ag420
ag416
atRp1436
sg17
g47
((lp1437
g425
ag426
ag428
ag429
ag430
ag431
ag432
ag437
ag459
ag434
ag436
ag438
ag439
ag440
ag441
ag460
ag442
ag443
ag444
ag445
ag446
ag447
ag433
ag449
ag450
ag451
ag452
ag453
ag454
ag456
ag457
ag458
ag448
ag455
atRp1438
sg18
g47
((lp1439
g463
ag464
ag466
ag467
ag468
ag469
ag470
ag485
ag472
ag473
ag474
ag476
ag477
ag478
ag497
ag479
ag480
ag481
ag482
ag483
ag484
ag471
ag486
ag487
ag488
ag489
ag490
ag491
ag493
ag494
ag495
ag496
ag492
atRp1440
sg19
g47
((lp1441
g500
ag501
ag503
ag504
ag505
ag506
ag507
ag521
ag509
ag510
ag511
ag512
ag513
ag514
ag533
ag515
ag516
ag517
ag518
ag519
ag520
ag508
ag522
ag523
ag524
ag525
ag526
ag527
ag529
ag530
ag531
ag532
ag528
atRp1442
sg20
g47
((lp1443
g536
ag537
ag539
ag540
ag541
ag542
ag543
ag557
ag545
ag546
ag547
ag548
ag549
ag550
ag569
ag551
ag552
ag553
ag554
ag555
ag556
ag544
ag558
ag559
ag560
ag561
ag562
ag563
ag565
ag566
ag567
ag568
ag564
atRp1444
sg21
g47
((lp1445
g572
ag573
ag575
ag576
ag577
ag578
ag579
ag593
ag581
ag582
ag583
ag584
ag585
ag586
ag605
ag587
ag588
ag589
ag590
ag591
ag592
ag580
ag594
ag595
ag596
ag597
ag598
ag599
ag601
ag602
ag603
ag604
ag600
atRp1446
sg22
g47
((lp1447
g608
ag609
ag611
ag612
ag613
ag614
ag615
ag629
ag617
ag618
ag619
ag620
ag621
ag622
ag642
ag623
ag624
ag625
ag626
ag627
ag628
ag616
ag630
ag632
ag633
ag634
ag635
ag636
ag638
ag639
ag640
ag641
ag637
atRp1448
sg23
g47
((lp1449
g645
ag646
ag648
ag649
ag650
ag651
ag652
ag666
ag654
ag655
ag656
ag657
ag658
ag659
ag678
ag660
ag661
ag662
ag663
ag664
ag665
ag653
ag667
ag668
ag669
ag670
ag671
ag672
ag674
ag675
ag676
ag677
ag673
atRp1450
sg24
g47
((lp1451
g681
ag682
ag684
ag685
ag686
ag687
ag688
ag702
ag690
ag691
ag692
ag693
ag694
ag695
ag714
ag696
ag697
ag698
ag699
ag700
ag701
ag689
ag703
ag704
ag705
ag706
ag707
ag708
ag710
ag711
ag712
ag713
ag709
atRp1452
sg25
g47
((lp1453
g717
ag718
ag720
ag721
ag722
ag723
ag724
ag738
ag726
ag727
ag728
ag729
ag730
ag731
ag750
ag732
ag733
ag734
ag735
ag736
ag737
ag725
ag739
ag740
ag741
ag742
ag743
ag744
ag746
ag747
ag748
ag749
ag745
atRp1454
sg26
g47
((lp1455
g753
ag754
ag756
ag757
ag758
ag759
ag760
ag775
ag762
ag763
ag764
ag766
ag767
ag768
ag787
ag769
ag770
ag771
ag772
ag773
ag774
ag761
ag776
ag777
ag778
ag779
ag780
ag781
ag783
ag784
ag785
ag786
ag782
atRp1456
sg27
g47
((lp1457
g790
ag791
ag793
ag794
ag795
ag796
ag797
ag811
ag799
ag800
ag801
ag802
ag803
ag804
ag823
ag805
ag806
ag807
ag808
ag809
ag810
ag798
ag812
ag813
ag814
ag815
ag816
ag817
ag819
ag820
ag821
ag822
ag818
atRp1458
sg28
g47
((lp1459
g826
ag827
ag829
ag830
ag831
ag832
ag833
ag847
ag835
ag836
ag837
ag838
ag839
ag840
ag860
ag841
ag842
ag843
ag844
ag845
ag846
ag834
ag848
ag850
ag851
ag852
ag853
ag854
ag856
ag857
ag858
ag859
ag855
atRp1460
sg29
g47
((lp1461
g863
ag864
ag868
ag869
ag870
ag871
ag872
ag887
ag874
ag875
ag876
ag877
ag878
ag879
ag899
ag880
ag881
ag882
ag883
ag884
ag885
ag873
ag888
ag889
ag890
ag891
ag892
ag893
ag895
ag896
ag897
ag898
ag894
atRp1462
sg30
g47
((lp1463
g902
ag903
ag905
ag906
ag907
ag908
ag909
ag923
ag911
ag912
ag913
ag914
ag915
ag916
ag935
ag917
ag918
ag919
ag920
ag921
ag922
ag910
ag924
ag925
ag926
ag927
ag928
ag929
ag931
ag932
ag933
ag934
ag930
atRp1464
sg31
g47
((lp1465
g938
ag939
ag941
ag942
ag943
ag944
ag945
ag959
ag947
ag948
ag949
ag950
ag951
ag952
ag971
ag953
ag954
ag955
ag956
ag957
ag958
ag946
ag960
ag961
ag962
ag963
ag964
ag965
ag967
ag968
ag969
ag970
ag966
atRp1466
sg32
g47
((lp1467
g974
ag975
ag977
ag978
ag979
ag980
ag981
ag996
ag983
ag985
ag986
ag987
ag988
ag989
ag1009
ag990
ag991
ag992
ag993
ag994
ag995
ag982
ag997
ag998
ag999
ag1000
ag1001
ag1002
ag1003
ag1005
ag1006
ag1007
ag1008
ag1004
atRp1468
sg33
g47
((lp1469
g1012
ag1013
ag1015
ag1016
ag1017
ag1018
ag1019
ag1033
ag1021
ag1022
ag1023
ag1024
ag1025
ag1026
ag1045
ag1027
ag1028
ag1029
ag1030
ag1031
ag1032
ag1020
ag1034
ag1035
ag1036
ag1037
ag1038
ag1039
ag1041
ag1042
ag1043
ag1044
ag1040
atRp1470
sg34
g47
((lp1471
g1048
ag1049
ag1051
ag1052
ag1053
ag1054
ag1055
ag1069
ag1057
ag1058
ag1059
ag1060
ag1061
ag1062
ag1081
ag1063
ag1064
ag1065
ag1066
ag1067
ag1068
ag1056
ag1070
ag1071
ag1072
ag1073
ag1074
ag1075
ag1077
ag1078
ag1079
ag1080
ag1076
atRp1472
sg35
g47
((lp1473
g1084
ag1085
ag1087
ag1088
ag1089
ag1090
ag1091
ag1105
ag1093
ag1094
ag1095
ag1096
ag1097
ag1098
ag1117
ag1099
ag1100
ag1101
ag1102
ag1103
ag1104
ag1092
ag1106
ag1107
ag1108
ag1109
ag1110
ag1111
ag1113
ag1114
ag1115
ag1116
ag1112
atRp1474
sg36
g47
((lp1475
g1120
ag1121
ag1123
ag1124
ag1125
ag1126
ag1127
ag1142
ag1129
ag1130
ag1131
ag1133
ag1134
ag1135
ag1154
ag1136
ag1137
ag1138
ag1139
ag1140
ag1141
ag1128
ag1143
ag1144
ag1145
ag1146
ag1147
ag1148
ag1150
ag1151
ag1152
ag1153
ag1149
atRp1476
sg37
g47
((lp1477
g1157
ag1158
ag1159
ag1160
ag1161
ag1162
ag1163
ag1177
ag1165
ag1166
ag1167
ag1168
ag1169
ag1170
ag1189
ag1171
ag1172
ag1173
ag1174
ag1175
ag1176
ag1164
ag1178
ag1179
ag1180
ag1181
ag1182
ag1183
ag1185
ag1186
ag1187
ag1188
ag1184
atRp1478
sg38
g47
((lp1479
g1192
ag1193
ag1195
ag1196
ag1197
ag1198
ag1199
ag1214
ag1201
ag1202
ag1203
ag1204
ag1205
ag1206
ag1208
ag1209
ag1210
ag1211
ag1212
ag1213
ag1200
ag1215
ag1216
ag1217
ag1218
ag1219
ag1220
ag1225
ag1221
ag1222
ag1223
ag1224
ag1207
atRp1480
sg39
g47
((lp1481
g1228
ag1229
ag1231
ag1232
ag1233
ag1234
ag1235
ag1250
ag1237
ag1238
ag1239
ag1241
ag1242
ag1243
ag1262
ag1244
ag1245
ag1246
ag1247
ag1248
ag1249
ag1236
ag1251
ag1252
ag1253
ag1254
ag1255
ag1256
ag1258
ag1259
ag1260
ag1261
ag1257
atRp1482
sg40
g47
((lp1483
g1265
ag1266
ag1268
ag1269
ag1270
ag1271
ag1272
ag1286
ag1274
ag1275
ag1276
ag1277
ag1278
ag1279
ag1298
ag1280
ag1281
ag1282
ag1283
ag1284
ag1285
ag1273
ag1287
ag1288
ag1289
ag1290
ag1291
ag1292
ag1294
ag1295
ag1296
ag1297
ag1293
atRp1484
sg41
g47
((lp1485
g1301
ag1302
ag1304
ag1305
ag1306
ag1307
ag1308
ag1322
ag1310
ag1311
ag1312
ag1313
ag1314
ag1315
ag1334
ag1316
ag1317
ag1318
ag1319
ag1320
ag1321
ag1309
ag1323
ag1324
ag1325
ag1326
ag1327
ag1328
ag1330
ag1331
ag1332
ag1333
ag1329
atRp1486
sg42
g47
((lp1487
g1337
ag1338
ag1340
ag1341
ag1342
ag1343
ag1344
ag1358
ag1346
ag1347
ag1348
ag1349
ag1350
ag1351
ag1370
ag1352
ag1353
ag1354
ag1355
ag1356
ag1357
ag1345
ag1359
ag1360
ag1361
ag1362
ag1363
ag1364
ag1366
ag1367
ag1368
ag1369
ag1365
atRp1488
sg1431
g47
((lp1489
g1374
atRp1490
sg44
g47
((lp1491
g1377
ag1378
ag1380
ag1381
ag1382
ag1383
ag1384
ag1399
ag1386
ag1388
ag1389
ag1390
ag1391
ag1392
ag1412
ag1393
ag1394
ag1395
ag1396
ag1397
ag1398
ag1385
ag1400
ag1401
ag1402
ag1403
ag1404
ag1405
ag1407
ag1408
ag1409
ag1410
ag1411
ag1406
atRp1492
s(dp1493
g2
(dp1494
S'http://www.nju.edu.cn'
p1495
I1
sg8
I1
sg9
I1
sg10
I1
sg11
I1
sg12
I1
sg13
I1
sg14
I1
sg15
I1
sg16
I1
sg17
I1
sg18
I1
sg19
I1
sg20
I1
sg21
I1
sg22
I1
sg23
I1
sg24
I1
sg25
I1
sg26
I1
sg27
I1
sg28
I1
sg29
I1
sg30
I1
sg31
I1
sg32
I1
sg33
I1
sg34
I1
sg35
I1
sg36
I1
sg37
I1
sg38
I1
sg39
I1
sg40
I1
sg41
I1
sg42
I1
sS'http://www.nju.edu.cn/english'
p1496
I1
sg44
I1
ss(dp1497
g14
g47
((lp1498
S'http://lib.nju.edu.cn'
p1499
aS'http://xiaoban.nju.edu.cn'
p1500
aS'http://sjc.nju.edu.cn'
p1501
aS'http://jw.nju.edu.cn'
p1502
aS'http://grawww.nju.edu.cn/html/zs/bsyjszs/1.html'
p1503
aS'http://jshr.nju.edu.cn'
p1504
aS'http://jwb.nju.edu.cn'
p1505
aS'http://985.nju.edu.cn'
p1506
aS'http://ndcw.nju.edu.cn'
p1507
aS'http://xiaoban.nju.edu.cn/html/gltz/1.html'
p1508
aS'http://wb.nju.edu.cn'
p1509
aS'http://job.nju.edu.cn'
p1510
aS'http://www.jlxy.nju.edu.cn'
p1511
aS'http://tuanwei.nju.edu.cn/xstt/yjsh'
p1512
aS'http://jw.nju.edu.cn/JiaoGai/YanJiuDongTai.asp'
p1513
aS'http://cet.nju.edu.cn:155'
p1514
aS'http://mail.nju.edu.cn'
p1515
aS'http://bbs.nju.edu.cn'
p1516
aS'http://ctl.nju.edu.cn'
p1517
aS'http://tuanwei.nju.edu.cn'
p1518
aS'http://rczp.nju.edu.cn'
p1519
aS'http://tree.nju.edu.cn'
p1520
aS'http://rczp.nju.edu.cn/urp-portal/portal/group/Recruit'
p1521
aS'http://xgc.nju.edu.cn'
p1522
aS'http://xiaobao.nju.edu.cn'
p1523
aS'http://gh.nju.edu.cn'
p1524
aS'http://news.nju.edu.cn'
p1525
aS'http://grawww.nju.edu.cn/html/zs/ssyjszs/1.html'
p1526
aS'http://grawww.nju.edu.cn/html/py/tz/1.html'
p1527
aS'http://ndzbb.nju.edu.cn'
p1528
aS'http://www.njude.com.cn'
p1529
aS'http://ttc.nju.edu.cn/ttc/index.php'
p1530
aS'http://postdoctors.nju.edu.cn'
p1531
aS'http://museum.nju.edu.cn'
p1532
aS'http://bkzs.nju.edu.cn'
p1533
aS'http://nic.nju.edu.cn'
p1534
aS'http://eqpt.nju.edu.cn'
p1535
aS'http://xxgk.nju.edu.cn'
p1536
aS'http://qinggongxiao.nju.edu.cn'
p1537
aS'http://skch.nju.edu.cn'
p1538
aS'http://www.miibeian.gov.cn'
p1539
aS'http://jfx.nju.edu.cn'
p1540
aS'http://hr.nju.edu.cn'
p1541
aS'http://tuanwei.nju.edu.cn/component/tags/tag/24'
p1542
aS'http://dawww.nju.edu.cn'
p1543
aS'http://tres.nju.edu.cn/Search/Resbrowse.aspx?restype=04'
p1544
aS'http://grawww.nju.edu.cn'
p1545
aS'http://ces.nju.edu.cn'
p1546
aS'http://jw.nju.edu.cn/ContentList.aspx?FType=WZSY&MType=PX-WZSY-BKJXGK&res_type=introduction'
p1547
aS'http://scit.nju.edu.cn'
p1548
aS'http://tuanwei.nju.edu.cn/xstt/xsh'
p1549
aS'http://fcc.nju.edu.cn'
p1550
aS'http://bwc.nju.edu.cn'
p1551
aS'http://hwxy.nju.edu.cn'
p1552
aS'http://www.nju.org.cn'
p1553
aS'http://bbs.nju.edu.cn/bbsdoc?board=V_Suggestions'
p1554
aS'http://fzw.nju.edu.cn'
p1555
aS'http://cssci.nju.edu.cn/login_u.html'
p1556
aS'http://hwxy.nju.edu.cn/cn'
p1557
atRp1558
sg8
g47
((lp1559
S'http://lib.nju.edu.cn'
p1560
aS'http://grawww.nju.edu.cn/html/zs/bsyjszs/1.html'
p1561
aS'http://xiaoban.nju.edu.cn/html/gltz/1.html'
p1562
aS'http://job.nju.edu.cn'
p1563
aS'http://www.jlxy.nju.edu.cn'
p1564
aS'http://tuanwei.nju.edu.cn/xstt/yjsh'
p1565
aS'http://jw.nju.edu.cn/JiaoGai/YanJiuDongTai.asp'
p1566
aS'http://cet.nju.edu.cn:155'
p1567
aS'http://mail.nju.edu.cn'
p1568
aS'http://bbs.nju.edu.cn'
p1569
aS'http://tuanwei.nju.edu.cn'
p1570
aS'http://rczp.nju.edu.cn'
p1571
aS'http://tree.nju.edu.cn'
p1572
aS'http://rczp.nju.edu.cn/urp-portal/portal/group/Recruit'
p1573
aS'http://xiaobao.nju.edu.cn'
p1574
aS'http://gh.nju.edu.cn'
p1575
aS'http://news.nju.edu.cn'
p1576
aS'http://grawww.nju.edu.cn/html/zs/ssyjszs/1.html'
p1577
aS'http://grawww.nju.edu.cn/html/py/tz/1.html'
p1578
aS'http://www.njude.com.cn'
p1579
aS'http://postdoctors.nju.edu.cn'
p1580
aS'http://museum.nju.edu.cn'
p1581
aS'http://bkzs.nju.edu.cn'
p1582
aS'http://nic.nju.edu.cn'
p1583
aS'http://eqpt.nju.edu.cn'
p1584
aS'http://xxgk.nju.edu.cn'
p1585
aS'http://qinggongxiao.nju.edu.cn'
p1586
aS'http://www.miibeian.gov.cn'
p1587
aS'http://tuanwei.nju.edu.cn/component/tags/tag/24'
p1588
aS'http://dawww.nju.edu.cn'
p1589
aS'http://tres.nju.edu.cn/Search/Resbrowse.aspx?restype=04'
p1590
aS'http://ces.nju.edu.cn'
p1591
aS'http://jw.nju.edu.cn/ContentList.aspx?FType=WZSY&MType=PX-WZSY-BKJXGK&res_type=introduction'
p1592
aS'http://tuanwei.nju.edu.cn/xstt/xsh'
p1593
aS'http://hwxy.nju.edu.cn'
p1594
aS'http://www.nju.org.cn'
p1595
aS'http://bbs.nju.edu.cn/bbsdoc?board=V_Suggestions'
p1596
aS'http://cssci.nju.edu.cn/login_u.html'
p1597
aS'http://hwxy.nju.edu.cn/cn'
p1598
atRp1599
sg9
g47
((lp1600
S'http://lib.nju.edu.cn'
p1601
aS'http://grawww.nju.edu.cn/html/zs/bsyjszs/1.html'
p1602
aS'http://xiaoban.nju.edu.cn/html/gltz/1.html'
p1603
aS'http://job.nju.edu.cn'
p1604
aS'http://www.jlxy.nju.edu.cn'
p1605
aS'http://tuanwei.nju.edu.cn/xstt/yjsh'
p1606
aS'http://jw.nju.edu.cn/JiaoGai/YanJiuDongTai.asp'
p1607
aS'http://cet.nju.edu.cn:155'
p1608
aS'http://mail.nju.edu.cn'
p1609
aS'http://bbs.nju.edu.cn'
p1610
aS'http://tuanwei.nju.edu.cn'
p1611
aS'http://rczp.nju.edu.cn'
p1612
aS'http://tree.nju.edu.cn'
p1613
aS'http://rczp.nju.edu.cn/urp-portal/portal/group/Recruit'
p1614
aS'http://xiaobao.nju.edu.cn'
p1615
aS'http://gh.nju.edu.cn'
p1616
aS'http://news.nju.edu.cn'
p1617
aS'http://grawww.nju.edu.cn/html/zs/ssyjszs/1.html'
p1618
aS'http://grawww.nju.edu.cn/html/py/tz/1.html'
p1619
aS'http://www.njude.com.cn'
p1620
aS'http://postdoctors.nju.edu.cn'
p1621
aS'http://museum.nju.edu.cn'
p1622
aS'http://bkzs.nju.edu.cn'
p1623
aS'http://nic.nju.edu.cn'
p1624
aS'http://eqpt.nju.edu.cn'
p1625
aS'http://xxgk.nju.edu.cn'
p1626
aS'http://qinggongxiao.nju.edu.cn'
p1627
aS'http://www.miibeian.gov.cn'
p1628
aS'http://tuanwei.nju.edu.cn/component/tags/tag/24'
p1629
aS'http://dawww.nju.edu.cn'
p1630
aS'http://tres.nju.edu.cn/Search/Resbrowse.aspx?restype=04'
p1631
aS'http://ces.nju.edu.cn'
p1632
aS'http://jw.nju.edu.cn/ContentList.aspx?FType=WZSY&MType=PX-WZSY-BKJXGK&res_type=introduction'
p1633
aS'http://tuanwei.nju.edu.cn/xstt/xsh'
p1634
aS'http://hwxy.nju.edu.cn'
p1635
aS'http://www.nju.org.cn'
p1636
aS'http://bbs.nju.edu.cn/bbsdoc?board=V_Suggestions'
p1637
aS'http://cssci.nju.edu.cn/login_u.html'
p1638
aS'http://hwxy.nju.edu.cn/cn'
p1639
atRp1640
sg10
g47
((lp1641
S'http://lib.nju.edu.cn'
p1642
aS'http://grawww.nju.edu.cn/html/zs/bsyjszs/1.html'
p1643
aS'http://xiaoban.nju.edu.cn/html/gltz/1.html'
p1644
aS'http://job.nju.edu.cn'
p1645
aS'http://www.jlxy.nju.edu.cn'
p1646
aS'http://tuanwei.nju.edu.cn/xstt/yjsh'
p1647
aS'http://jw.nju.edu.cn/JiaoGai/YanJiuDongTai.asp'
p1648
aS'http://cet.nju.edu.cn:155'
p1649
aS'http://mail.nju.edu.cn'
p1650
aS'http://bbs.nju.edu.cn'
p1651
aS'http://tuanwei.nju.edu.cn'
p1652
aS'http://rczp.nju.edu.cn'
p1653
aS'http://tree.nju.edu.cn'
p1654
aS'http://rczp.nju.edu.cn/urp-portal/portal/group/Recruit'
p1655
aS'http://xiaobao.nju.edu.cn'
p1656
aS'http://gh.nju.edu.cn'
p1657
aS'http://news.nju.edu.cn'
p1658
aS'http://grawww.nju.edu.cn/html/zs/ssyjszs/1.html'
p1659
aS'http://grawww.nju.edu.cn/html/py/tz/1.html'
p1660
aS'http://www.njude.com.cn'
p1661
aS'http://postdoctors.nju.edu.cn'
p1662
aS'http://museum.nju.edu.cn'
p1663
aS'http://bkzs.nju.edu.cn'
p1664
aS'http://nic.nju.edu.cn'
p1665
aS'http://eqpt.nju.edu.cn'
p1666
aS'http://xxgk.nju.edu.cn'
p1667
aS'http://qinggongxiao.nju.edu.cn'
p1668
aS'http://www.miibeian.gov.cn'
p1669
aS'http://tuanwei.nju.edu.cn/component/tags/tag/24'
p1670
aS'http://dawww.nju.edu.cn'
p1671
aS'http://tres.nju.edu.cn/Search/Resbrowse.aspx?restype=04'
p1672
aS'http://ces.nju.edu.cn'
p1673
aS'http://jw.nju.edu.cn/ContentList.aspx?FType=WZSY&MType=PX-WZSY-BKJXGK&res_type=introduction'
p1674
aS'http://tuanwei.nju.edu.cn/xstt/xsh'
p1675
aS'http://hwxy.nju.edu.cn'
p1676
aS'http://www.nju.org.cn'
p1677
aS'http://bbs.nju.edu.cn/bbsdoc?board=V_Suggestions'
p1678
aS'http://cssci.nju.edu.cn/login_u.html'
p1679
aS'http://hwxy.nju.edu.cn/cn'
p1680
atRp1681
sg11
g47
((lp1682
S'http://lib.nju.edu.cn'
p1683
aS'http://grawww.nju.edu.cn/html/zs/bsyjszs/1.html'
p1684
aS'http://jwb.nju.edu.cn'
p1685
aS'http://tzb.nju.edu.cn'
p1686
aS'http://xiaoban.nju.edu.cn/html/gltz/1.html'
p1687
aS'http://job.nju.edu.cn'
p1688
aS'http://www.jlxy.nju.edu.cn'
p1689
aS'http://tuanwei.nju.edu.cn/xstt/yjsh'
p1690
aS'http://jw.nju.edu.cn/JiaoGai/YanJiuDongTai.asp'
p1691
aS'http://cet.nju.edu.cn:155'
p1692
aS'http://mail.nju.edu.cn'
p1693
aS'http://bbs.nju.edu.cn'
p1694
aS'http://tuanwei.nju.edu.cn'
p1695
aS'http://rczp.nju.edu.cn'
p1696
aS'http://tree.nju.edu.cn'
p1697
aS'http://xcb.nju.edu.cn'
p1698
aS'http://rczp.nju.edu.cn/urp-portal/portal/group/Recruit'
p1699
aS'http://xiaobao.nju.edu.cn'
p1700
aS'http://gh.nju.edu.cn'
p1701
aS'http://news.nju.edu.cn'
p1702
aS'http://grawww.nju.edu.cn/html/zs/ssyjszs/1.html'
p1703
aS'http://grawww.nju.edu.cn/html/py/tz/1.html'
p1704
aS'http://www.njude.com.cn'
p1705
aS'http://postdoctors.nju.edu.cn'
p1706
aS'http://museum.nju.edu.cn'
p1707
aS'http://bkzs.nju.edu.cn'
p1708
aS'http://nic.nju.edu.cn'
p1709
aS'http://eqpt.nju.edu.cn'
p1710
aS'http://zzb.nju.edu.cn'
p1711
aS'http://xxgk.nju.edu.cn'
p1712
aS'http://qinggongxiao.nju.edu.cn'
p1713
aS'http://www.miibeian.gov.cn'
p1714
aS'http://tuanwei.nju.edu.cn/component/tags/tag/24'
p1715
aS'http://dawww.nju.edu.cn'
p1716
aS'http://tres.nju.edu.cn/Search/Resbrowse.aspx?restype=04'
p1717
aS'http://ces.nju.edu.cn'
p1718
aS'http://jw.nju.edu.cn/ContentList.aspx?FType=WZSY&MType=PX-WZSY-BKJXGK&res_type=introduction'
p1719
aS'http://dwbgs.nju.edu.cn'
p1720
aS'http://tuanwei.nju.edu.cn/xstt/xsh'
p1721
aS'http://rwb.nju.edu.cn'
p1722
aS'http://ltx.nju.edu.cn'
p1723
aS'http://hwxy.nju.edu.cn'
p1724
aS'http://www.nju.org.cn'
p1725
aS'http://bbs.nju.edu.cn/bbsdoc?board=V_Suggestions'
p1726
aS'http://cssci.nju.edu.cn/login_u.html'
p1727
aS'http://hwxy.nju.edu.cn/cn'
p1728
atRp1729
sg12
g47
((lp1730
S'http://lib.nju.edu.cn'
p1731
aS'http://grawww.nju.edu.cn/html/zs/bsyjszs/1.html'
p1732
aS'http://xiaoban.nju.edu.cn/html/gltz/1.html'
p1733
aS'http://job.nju.edu.cn'
p1734
aS'http://www.jlxy.nju.edu.cn'
p1735
aS'http://tuanwei.nju.edu.cn/xstt/yjsh'
p1736
aS'http://jw.nju.edu.cn/JiaoGai/YanJiuDongTai.asp'
p1737
aS'http://cet.nju.edu.cn:155'
p1738
aS'http://mail.nju.edu.cn'
p1739
aS'http://bbs.nju.edu.cn'
p1740
aS'http://tuanwei.nju.edu.cn'
p1741
aS'http://rczp.nju.edu.cn'
p1742
aS'http://tree.nju.edu.cn'
p1743
aS'http://rczp.nju.edu.cn/urp-portal/portal/group/Recruit'
p1744
aS'http://xiaobao.nju.edu.cn'
p1745
aS'http://gh.nju.edu.cn'
p1746
aS'http://news.nju.edu.cn'
p1747
aS'http://grawww.nju.edu.cn/html/zs/ssyjszs/1.html'
p1748
aS'http://grawww.nju.edu.cn/html/py/tz/1.html'
p1749
aS'http://www.njude.com.cn'
p1750
aS'http://postdoctors.nju.edu.cn'
p1751
aS'http://museum.nju.edu.cn'
p1752
aS'http://bkzs.nju.edu.cn'
p1753
aS'http://nic.nju.edu.cn'
p1754
aS'http://eqpt.nju.edu.cn'
p1755
aS'http://xxgk.nju.edu.cn'
p1756
aS'http://qinggongxiao.nju.edu.cn'
p1757
aS'http://www.miibeian.gov.cn'
p1758
aS'http://tuanwei.nju.edu.cn/component/tags/tag/24'
p1759
aS'http://dawww.nju.edu.cn'
p1760
aS'http://tres.nju.edu.cn/Search/Resbrowse.aspx?restype=04'
p1761
aS'http://ces.nju.edu.cn'
p1762
aS'http://jw.nju.edu.cn/ContentList.aspx?FType=WZSY&MType=PX-WZSY-BKJXGK&res_type=introduction'
p1763
aS'http://tuanwei.nju.edu.cn/xstt/xsh'
p1764
aS'http://hwxy.nju.edu.cn'
p1765
aS'http://www.nju.org.cn'
p1766
aS'http://bbs.nju.edu.cn/bbsdoc?board=V_Suggestions'
p1767
aS'http://cssci.nju.edu.cn/login_u.html'
p1768
aS'http://hwxy.nju.edu.cn/cn'
p1769
atRp1770
sg13
g47
((lp1771
S'http://lib.nju.edu.cn'
p1772
aS'http://grawww.nju.edu.cn/html/zs/bsyjszs/1.html'
p1773
aS'http://xiaoban.nju.edu.cn/html/gltz/1.html'
p1774
aS'http://job.nju.edu.cn'
p1775
aS'http://www.jlxy.nju.edu.cn'
p1776
aS'http://tuanwei.nju.edu.cn/xstt/yjsh'
p1777
aS'http://jw.nju.edu.cn/JiaoGai/YanJiuDongTai.asp'
p1778
aS'http://cet.nju.edu.cn:155'
p1779
aS'http://mail.nju.edu.cn'
p1780
aS'http://bbs.nju.edu.cn'
p1781
aS'http://tuanwei.nju.edu.cn'
p1782
aS'http://rczp.nju.edu.cn'
p1783
aS'http://tree.nju.edu.cn'
p1784
aS'http://rczp.nju.edu.cn/urp-portal/portal/group/Recruit'
p1785
aS'http://xiaobao.nju.edu.cn'
p1786
aS'http://gh.nju.edu.cn'
p1787
aS'http://news.nju.edu.cn'
p1788
aS'http://grawww.nju.edu.cn/html/zs/ssyjszs/1.html'
p1789
aS'http://grawww.nju.edu.cn/html/py/tz/1.html'
p1790
aS'http://www.njude.com.cn'
p1791
aS'http://postdoctors.nju.edu.cn'
p1792
aS'http://museum.nju.edu.cn'
p1793
aS'http://bkzs.nju.edu.cn'
p1794
aS'http://nic.nju.edu.cn'
p1795
aS'http://eqpt.nju.edu.cn'
p1796
aS'http://xxgk.nju.edu.cn'
p1797
aS'http://qinggongxiao.nju.edu.cn'
p1798
aS'http://www.miibeian.gov.cn'
p1799
aS'http://tuanwei.nju.edu.cn/component/tags/tag/24'
p1800
aS'http://dawww.nju.edu.cn'
p1801
aS'http://tres.nju.edu.cn/Search/Resbrowse.aspx?restype=04'
p1802
aS'http://ces.nju.edu.cn'
p1803
aS'http://jw.nju.edu.cn/ContentList.aspx?FType=WZSY&MType=PX-WZSY-BKJXGK&res_type=introduction'
p1804
aS'http://tuanwei.nju.edu.cn/xstt/xsh'
p1805
aS'http://hwxy.nju.edu.cn'
p1806
aS'http://www.nju.org.cn'
p1807
aS'http://bbs.nju.edu.cn/bbsdoc?board=V_Suggestions'
p1808
aS'http://cssci.nju.edu.cn/login_u.html'
p1809
aS'http://hwxy.nju.edu.cn/cn'
p1810
atRp1811
sg2
g47
((lp1812
S'http://lib.nju.edu.cn'
p1813
aS'http://oa.nju.edu.cn'
p1814
aS'http://grawww.nju.edu.cn/html/zs/bsyjszs/1.html'
p1815
aS'http://news.nju.edu.cn/show_article_1_37991'
p1816
aS'http://xiaoban.nju.edu.cn/html/gltz/1.html'
p1817
aS'http://news.nju.edu.cn/show_article_1_37986'
p1818
aS'http://job.nju.edu.cn'
p1819
aS'http://www.jlxy.nju.edu.cn'
p1820
aS'http://tuanwei.nju.edu.cn/xstt/yjsh'
p1821
aS'http://news.nju.edu.cn/show_article_1_37989'
p1822
aS'http://jw.nju.edu.cn/JiaoGai/YanJiuDongTai.asp'
p1823
aS'http://cet.nju.edu.cn:155'
p1824
aS'http://mail.nju.edu.cn'
p1825
aS'http://bbs.nju.edu.cn'
p1826
aS'http://tuanwei.nju.edu.cn'
p1827
aS'http://news.nju.edu.cn/show_article_1_38008'
p1828
aS'http://tree.nju.edu.cn'
p1829
aS'http://rczp.nju.edu.cn'
p1830
aS'http://news.nju.edu.cn/show_article_1_38000'
p1831
aS'http://news.nju.edu.cn/ddh'
p1832
aS'http://rczp.nju.edu.cn/urp-portal/portal/group/Recruit'
p1833
aS'http://xiaobao.nju.edu.cn'
p1834
aS'http://gh.nju.edu.cn'
p1835
aS'http://news.nju.edu.cn'
p1836
aS'http://grawww.nju.edu.cn/html/zs/ssyjszs/1.html'
p1837
aS'http://grawww.nju.edu.cn/html/py/tz/1.html'
p1838
aS'http://www.njude.com.cn'
p1839
aS'http://postdoctors.nju.edu.cn'
p1840
aS'http://museum.nju.edu.cn'
p1841
aS'http://bkzs.nju.edu.cn'
p1842
aS'http://nic.nju.edu.cn'
p1843
aS'http://eqpt.nju.edu.cn'
p1844
aS'http://xxgk.nju.edu.cn'
p1845
aS'http://qinggongxiao.nju.edu.cn'
p1846
aS'http://www.miibeian.gov.cn'
p1847
aS'http://tuanwei.nju.edu.cn/component/tags/tag/24'
p1848
aS'http://news.nju.edu.cn/show_article_1_37994'
p1849
aS'http://dawww.nju.edu.cn'
p1850
aS'http://tres.nju.edu.cn/Search/Resbrowse.aspx?restype=04'
p1851
aS'http://ces.nju.edu.cn'
p1852
aS'http://jw.nju.edu.cn/ContentList.aspx?FType=WZSY&MType=PX-WZSY-BKJXGK&res_type=introduction'
p1853
aS'http://news.nju.edu.cn/show_article_1_37999'
p1854
aS'http://tuanwei.nju.edu.cn/xstt/xsh'
p1855
aS'http://news.nju.edu.cn/show_article_1_38014'
p1856
aS'http://news.nju.edu.cn/show_article_1_38012'
p1857
aS'http://hwxy.nju.edu.cn'
p1858
aS'http://www.nju.org.cn'
p1859
aS'http://news.nju.edu.cn/show_article_1_37988'
p1860
aS'http://njuef.nju.edu.cn'
p1861
aS'http://cssci.nju.edu.cn/login_u.html'
p1862
aS'http://hwxy.nju.edu.cn/cn'
p1863
atRp1864
sg15
g47
((lp1865
S'http://lib.nju.edu.cn'
p1866
aS'http://grawww.nju.edu.cn/html/zs/bsyjszs/1.html'
p1867
aS'http://xiaoban.nju.edu.cn/html/gltz/1.html'
p1868
aS'http://job.nju.edu.cn'
p1869
aS'http://www.jlxy.nju.edu.cn'
p1870
aS'http://tuanwei.nju.edu.cn/xstt/yjsh'
p1871
aS'http://jw.nju.edu.cn/JiaoGai/YanJiuDongTai.asp'
p1872
aS'http://cet.nju.edu.cn:155'
p1873
aS'http://mail.nju.edu.cn'
p1874
aS'http://bbs.nju.edu.cn'
p1875
aS'http://tuanwei.nju.edu.cn'
p1876
aS'http://rczp.nju.edu.cn'
p1877
aS'http://tree.nju.edu.cn'
p1878
aS'http://rczp.nju.edu.cn/urp-portal/portal/group/Recruit'
p1879
aS'http://xiaobao.nju.edu.cn'
p1880
aS'http://gh.nju.edu.cn'
p1881
aS'http://news.nju.edu.cn'
p1882
aS'http://grawww.nju.edu.cn/html/zs/ssyjszs/1.html'
p1883
aS'http://grawww.nju.edu.cn/html/py/tz/1.html'
p1884
aS'http://www.njude.com.cn'
p1885
aS'http://postdoctors.nju.edu.cn'
p1886
aS'http://museum.nju.edu.cn'
p1887
aS'http://bkzs.nju.edu.cn'
p1888
aS'http://nic.nju.edu.cn'
p1889
aS'http://eqpt.nju.edu.cn'
p1890
aS'http://xxgk.nju.edu.cn'
p1891
aS'http://qinggongxiao.nju.edu.cn'
p1892
aS'http://www.miibeian.gov.cn'
p1893
aS'http://tuanwei.nju.edu.cn/component/tags/tag/24'
p1894
aS'http://dawww.nju.edu.cn'
p1895
aS'http://tres.nju.edu.cn/Search/Resbrowse.aspx?restype=04'
p1896
aS'http://ces.nju.edu.cn'
p1897
aS'http://jw.nju.edu.cn/ContentList.aspx?FType=WZSY&MType=PX-WZSY-BKJXGK&res_type=introduction'
p1898
aS'http://tuanwei.nju.edu.cn/xstt/xsh'
p1899
aS'http://hwxy.nju.edu.cn'
p1900
aS'http://www.nju.org.cn'
p1901
aS'http://bbs.nju.edu.cn/bbsdoc?board=V_Suggestions'
p1902
aS'http://cssci.nju.edu.cn/login_u.html'
p1903
aS'http://hwxy.nju.edu.cn/cn'
p1904
atRp1905
sg16
g47
((lp1906
S'http://lib.nju.edu.cn'
p1907
aS'http://grawww.nju.edu.cn/html/zs/bsyjszs/1.html'
p1908
aS'http://xiaoban.nju.edu.cn/html/gltz/1.html'
p1909
aS'http://job.nju.edu.cn'
p1910
aS'http://www.jlxy.nju.edu.cn'
p1911
aS'http://tuanwei.nju.edu.cn/xstt/yjsh'
p1912
aS'http://jw.nju.edu.cn/JiaoGai/YanJiuDongTai.asp'
p1913
aS'http://cet.nju.edu.cn:155'
p1914
aS'http://mail.nju.edu.cn'
p1915
aS'http://bbs.nju.edu.cn'
p1916
aS'http://tuanwei.nju.edu.cn'
p1917
aS'http://rczp.nju.edu.cn'
p1918
aS'http://tree.nju.edu.cn'
p1919
aS'http://rczp.nju.edu.cn/urp-portal/portal/group/Recruit'
p1920
aS'http://xiaobao.nju.edu.cn'
p1921
aS'http://gh.nju.edu.cn'
p1922
aS'http://news.nju.edu.cn'
p1923
aS'http://grawww.nju.edu.cn/html/zs/ssyjszs/1.html'
p1924
aS'http://grawww.nju.edu.cn/html/py/tz/1.html'
p1925
aS'http://www.njude.com.cn'
p1926
aS'http://postdoctors.nju.edu.cn'
p1927
aS'http://museum.nju.edu.cn'
p1928
aS'http://bkzs.nju.edu.cn'
p1929
aS'http://nic.nju.edu.cn'
p1930
aS'http://eqpt.nju.edu.cn'
p1931
aS'http://xxgk.nju.edu.cn'
p1932
aS'http://qinggongxiao.nju.edu.cn'
p1933
aS'http://www.miibeian.gov.cn'
p1934
aS'http://tuanwei.nju.edu.cn/component/tags/tag/24'
p1935
aS'http://dawww.nju.edu.cn'
p1936
aS'http://tres.nju.edu.cn/Search/Resbrowse.aspx?restype=04'
p1937
aS'http://ces.nju.edu.cn'
p1938
aS'http://jw.nju.edu.cn/ContentList.aspx?FType=WZSY&MType=PX-WZSY-BKJXGK&res_type=introduction'
p1939
aS'http://tuanwei.nju.edu.cn/xstt/xsh'
p1940
aS'http://hwxy.nju.edu.cn'
p1941
aS'http://www.nju.org.cn'
p1942
aS'http://bbs.nju.edu.cn/bbsdoc?board=V_Suggestions'
p1943
aS'http://cssci.nju.edu.cn/login_u.html'
p1944
aS'http://hwxy.nju.edu.cn/cn'
p1945
atRp1946
sg17
g47
((lp1947
S'http://lib.nju.edu.cn'
p1948
aS'http://grawww.nju.edu.cn/html/zs/bsyjszs/1.html'
p1949
aS'http://xiaoban.nju.edu.cn/html/gltz/1.html'
p1950
aS'http://job.nju.edu.cn'
p1951
aS'http://www.jlxy.nju.edu.cn'
p1952
aS'http://tuanwei.nju.edu.cn/xstt/yjsh'
p1953
aS'http://jw.nju.edu.cn/JiaoGai/YanJiuDongTai.asp'
p1954
aS'http://cet.nju.edu.cn:155'
p1955
aS'http://mail.nju.edu.cn'
p1956
aS'http://bbs.nju.edu.cn'
p1957
aS'http://tuanwei.nju.edu.cn'
p1958
aS'http://rczp.nju.edu.cn'
p1959
aS'http://tree.nju.edu.cn'
p1960
aS'http://rczp.nju.edu.cn/urp-portal/portal/group/Recruit'
p1961
aS'http://xiaobao.nju.edu.cn'
p1962
aS'http://gh.nju.edu.cn'
p1963
aS'http://news.nju.edu.cn'
p1964
aS'http://grawww.nju.edu.cn/html/zs/ssyjszs/1.html'
p1965
aS'http://grawww.nju.edu.cn/html/py/tz/1.html'
p1966
aS'http://www.njude.com.cn'
p1967
aS'http://postdoctors.nju.edu.cn'
p1968
aS'http://museum.nju.edu.cn'
p1969
aS'http://bkzs.nju.edu.cn'
p1970
aS'http://nic.nju.edu.cn'
p1971
aS'http://eqpt.nju.edu.cn'
p1972
aS'http://xxgk.nju.edu.cn'
p1973
aS'http://qinggongxiao.nju.edu.cn'
p1974
aS'http://www.miibeian.gov.cn'
p1975
aS'http://tuanwei.nju.edu.cn/component/tags/tag/24'
p1976
aS'http://dawww.nju.edu.cn'
p1977
aS'http://tres.nju.edu.cn/Search/Resbrowse.aspx?restype=04'
p1978
aS'http://ces.nju.edu.cn'
p1979
aS'http://jw.nju.edu.cn/ContentList.aspx?FType=WZSY&MType=PX-WZSY-BKJXGK&res_type=introduction'
p1980
aS'http://tuanwei.nju.edu.cn/xstt/xsh'
p1981
aS'http://hwxy.nju.edu.cn'
p1982
aS'http://www.nju.org.cn'
p1983
aS'http://bbs.nju.edu.cn/bbsdoc?board=V_Suggestions'
p1984
aS'http://cssci.nju.edu.cn/login_u.html'
p1985
aS'http://hwxy.nju.edu.cn/cn'
p1986
atRp1987
sg18
g47
((lp1988
S'http://lib.nju.edu.cn'
p1989
aS'http://grawww.nju.edu.cn/html/zs/bsyjszs/1.html'
p1990
aS'http://xiaoban.nju.edu.cn/html/gltz/1.html'
p1991
aS'http://job.nju.edu.cn'
p1992
aS'http://www.jlxy.nju.edu.cn'
p1993
aS'http://tuanwei.nju.edu.cn/xstt/yjsh'
p1994
aS'http://jw.nju.edu.cn/JiaoGai/YanJiuDongTai.asp'
p1995
aS'http://cet.nju.edu.cn:155'
p1996
aS'http://mail.nju.edu.cn'
p1997
aS'http://bbs.nju.edu.cn'
p1998
aS'http://tuanwei.nju.edu.cn'
p1999
aS'http://rczp.nju.edu.cn'
p2000
aS'http://tree.nju.edu.cn'
p2001
aS'http://rczp.nju.edu.cn/urp-portal/portal/group/Recruit'
p2002
aS'http://xiaobao.nju.edu.cn'
p2003
aS'http://gh.nju.edu.cn'
p2004
aS'http://news.nju.edu.cn'
p2005
aS'http://grawww.nju.edu.cn/html/zs/ssyjszs/1.html'
p2006
aS'http://grawww.nju.edu.cn/html/py/tz/1.html'
p2007
aS'http://www.njude.com.cn'
p2008
aS'http://postdoctors.nju.edu.cn'
p2009
aS'http://museum.nju.edu.cn'
p2010
aS'http://bkzs.nju.edu.cn'
p2011
aS'http://nic.nju.edu.cn'
p2012
aS'http://eqpt.nju.edu.cn'
p2013
aS'http://xxgk.nju.edu.cn'
p2014
aS'http://qinggongxiao.nju.edu.cn'
p2015
aS'http://www.miibeian.gov.cn'
p2016
aS'http://tuanwei.nju.edu.cn/component/tags/tag/24'
p2017
aS'http://dawww.nju.edu.cn'
p2018
aS'http://tres.nju.edu.cn/Search/Resbrowse.aspx?restype=04'
p2019
aS'http://ces.nju.edu.cn'
p2020
aS'http://jw.nju.edu.cn/ContentList.aspx?FType=WZSY&MType=PX-WZSY-BKJXGK&res_type=introduction'
p2021
aS'http://tuanwei.nju.edu.cn/xstt/xsh'
p2022
aS'http://hwxy.nju.edu.cn'
p2023
aS'http://www.nju.org.cn'
p2024
aS'http://bbs.nju.edu.cn/bbsdoc?board=V_Suggestions'
p2025
aS'http://cssci.nju.edu.cn/login_u.html'
p2026
aS'http://hwxy.nju.edu.cn/cn'
p2027
atRp2028
sg19
g47
((lp2029
S'http://lib.nju.edu.cn'
p2030
aS'http://grawww.nju.edu.cn/html/zs/bsyjszs/1.html'
p2031
aS'http://xiaoban.nju.edu.cn/html/gltz/1.html'
p2032
aS'http://job.nju.edu.cn'
p2033
aS'http://www.jlxy.nju.edu.cn'
p2034
aS'http://tuanwei.nju.edu.cn/xstt/yjsh'
p2035
aS'http://jw.nju.edu.cn/JiaoGai/YanJiuDongTai.asp'
p2036
aS'http://cet.nju.edu.cn:155'
p2037
aS'http://mail.nju.edu.cn'
p2038
aS'http://bbs.nju.edu.cn'
p2039
aS'http://xgc.nju.edu.cn/info_list_jzxj.php?id=6'
p2040
aS'http://tuanwei.nju.edu.cn'
p2041
aS'http://rczp.nju.edu.cn'
p2042
aS'http://tree.nju.edu.cn'
p2043
aS'http://rczp.nju.edu.cn/urp-portal/portal/group/Recruit'
p2044
aS'http://xiaobao.nju.edu.cn'
p2045
aS'http://gh.nju.edu.cn'
p2046
aS'http://news.nju.edu.cn'
p2047
aS'http://grawww.nju.edu.cn/html/zs/ssyjszs/1.html'
p2048
aS'http://grawww.nju.edu.cn/html/py/tz/1.html'
p2049
aS'http://www.njude.com.cn'
p2050
aS'http://postdoctors.nju.edu.cn'
p2051
aS'http://museum.nju.edu.cn'
p2052
aS'http://bkzs.nju.edu.cn'
p2053
aS'http://nic.nju.edu.cn'
p2054
aS'http://eqpt.nju.edu.cn'
p2055
aS'http://xxgk.nju.edu.cn'
p2056
aS'http://qinggongxiao.nju.edu.cn'
p2057
aS'http://www.miibeian.gov.cn'
p2058
aS'http://tuanwei.nju.edu.cn/component/tags/tag/24'
p2059
aS'http://dawww.nju.edu.cn'
p2060
aS'http://tres.nju.edu.cn/Search/Resbrowse.aspx?restype=04'
p2061
aS'http://ces.nju.edu.cn'
p2062
aS'http://jw.nju.edu.cn/ContentList.aspx?FType=WZSY&MType=PX-WZSY-BKJXGK&res_type=introduction'
p2063
aS'http://grawww.nju.edu.cn/content/sxjy/jsj1.htm'
p2064
aS'http://tuanwei.nju.edu.cn/xstt/xsh'
p2065
aS'http://hwxy.nju.edu.cn'
p2066
aS'http://www.nju.org.cn'
p2067
aS'http://bbs.nju.edu.cn/bbsdoc?board=V_Suggestions'
p2068
aS'http://cssci.nju.edu.cn/login_u.html'
p2069
aS'http://hwxy.nju.edu.cn/cn'
p2070
atRp2071
sg20
g47
((lp2072
S'http://lib.nju.edu.cn'
p2073
aS'http://grawww.nju.edu.cn/html/zs/bsyjszs/1.html'
p2074
aS'http://xiaoban.nju.edu.cn/html/gltz/1.html'
p2075
aS'http://job.nju.edu.cn'
p2076
aS'http://www.jlxy.nju.edu.cn'
p2077
aS'http://tuanwei.nju.edu.cn/xstt/yjsh'
p2078
aS'http://jw.nju.edu.cn/JiaoGai/YanJiuDongTai.asp'
p2079
aS'http://cet.nju.edu.cn:155'
p2080
aS'http://mail.nju.edu.cn'
p2081
aS'http://bbs.nju.edu.cn'
p2082
aS'http://tuanwei.nju.edu.cn'
p2083
aS'http://rczp.nju.edu.cn'
p2084
aS'http://tree.nju.edu.cn'
p2085
aS'http://rczp.nju.edu.cn/urp-portal/portal/group/Recruit'
p2086
aS'http://xiaobao.nju.edu.cn'
p2087
aS'http://gh.nju.edu.cn'
p2088
aS'http://news.nju.edu.cn'
p2089
aS'http://grawww.nju.edu.cn/html/zs/ssyjszs/1.html'
p2090
aS'http://grawww.nju.edu.cn/html/py/tz/1.html'
p2091
aS'http://www.njude.com.cn'
p2092
aS'http://postdoctors.nju.edu.cn'
p2093
aS'http://museum.nju.edu.cn'
p2094
aS'http://bkzs.nju.edu.cn'
p2095
aS'http://nic.nju.edu.cn'
p2096
aS'http://eqpt.nju.edu.cn'
p2097
aS'http://xxgk.nju.edu.cn'
p2098
aS'http://qinggongxiao.nju.edu.cn'
p2099
aS'http://www.miibeian.gov.cn'
p2100
aS'http://tuanwei.nju.edu.cn/component/tags/tag/24'
p2101
aS'http://dawww.nju.edu.cn'
p2102
aS'http://tres.nju.edu.cn/Search/Resbrowse.aspx?restype=04'
p2103
aS'http://ces.nju.edu.cn'
p2104
aS'http://jw.nju.edu.cn/ContentList.aspx?FType=WZSY&MType=PX-WZSY-BKJXGK&res_type=introduction'
p2105
aS'http://tuanwei.nju.edu.cn/xstt/xsh'
p2106
aS'http://hwxy.nju.edu.cn'
p2107
aS'http://www.nju.org.cn'
p2108
aS'http://bbs.nju.edu.cn/bbsdoc?board=V_Suggestions'
p2109
aS'http://cssci.nju.edu.cn/login_u.html'
p2110
aS'http://hwxy.nju.edu.cn/cn'
p2111
atRp2112
sg21
g47
((lp2113
S'http://lib.nju.edu.cn'
p2114
aS'http://grawww.nju.edu.cn/html/zs/bsyjszs/1.html'
p2115
aS'http://xiaoban.nju.edu.cn/html/gltz/1.html'
p2116
aS'http://job.nju.edu.cn'
p2117
aS'http://www.jlxy.nju.edu.cn'
p2118
aS'http://tuanwei.nju.edu.cn/xstt/yjsh'
p2119
aS'http://jw.nju.edu.cn/JiaoGai/YanJiuDongTai.asp'
p2120
aS'http://cet.nju.edu.cn:155'
p2121
aS'http://mail.nju.edu.cn'
p2122
aS'http://bbs.nju.edu.cn'
p2123
aS'http://tuanwei.nju.edu.cn'
p2124
aS'http://rczp.nju.edu.cn'
p2125
aS'http://tree.nju.edu.cn'
p2126
aS'http://rczp.nju.edu.cn/urp-portal/portal/group/Recruit'
p2127
aS'http://xiaobao.nju.edu.cn'
p2128
aS'http://gh.nju.edu.cn'
p2129
aS'http://news.nju.edu.cn'
p2130
aS'http://grawww.nju.edu.cn/html/zs/ssyjszs/1.html'
p2131
aS'http://grawww.nju.edu.cn/html/py/tz/1.html'
p2132
aS'http://www.njude.com.cn'
p2133
aS'http://postdoctors.nju.edu.cn'
p2134
aS'http://museum.nju.edu.cn'
p2135
aS'http://bkzs.nju.edu.cn'
p2136
aS'http://nic.nju.edu.cn'
p2137
aS'http://eqpt.nju.edu.cn'
p2138
aS'http://xxgk.nju.edu.cn'
p2139
aS'http://qinggongxiao.nju.edu.cn'
p2140
aS'http://www.miibeian.gov.cn'
p2141
aS'http://tuanwei.nju.edu.cn/component/tags/tag/24'
p2142
aS'http://dawww.nju.edu.cn'
p2143
aS'http://tres.nju.edu.cn/Search/Resbrowse.aspx?restype=04'
p2144
aS'http://ces.nju.edu.cn'
p2145
aS'http://jw.nju.edu.cn/ContentList.aspx?FType=WZSY&MType=PX-WZSY-BKJXGK&res_type=introduction'
p2146
aS'http://tuanwei.nju.edu.cn/xstt/xsh'
p2147
aS'http://hwxy.nju.edu.cn'
p2148
aS'http://www.nju.org.cn'
p2149
aS'http://bbs.nju.edu.cn/bbsdoc?board=V_Suggestions'
p2150
aS'http://cssci.nju.edu.cn/login_u.html'
p2151
aS'http://hwxy.nju.edu.cn/cn'
p2152
atRp2153
sg22
g47
((lp2154
S'http://ocer.nju.edu.cn'
p2155
aS'http://sme.nju.edu.cn'
p2156
aS'http://nubs.nju.edu.cn'
p2157
aS'http://www.sfs.nju.edu.cn/yxjs/korean.html'
p2158
aS'http://hwxy.nju.edu.cn/cn'
p2159
aS'http://bbs.nju.edu.cn'
p2160
aS'http://mail.nju.edu.cn'
p2161
aS'http://hjxy.nju.edu.cn'
p2162
aS'http://gh.nju.edu.cn'
p2163
aS'http://news.nju.edu.cn'
p2164
aS'http://museum.nju.edu.cn'
p2165
aS'http://bkzs.nju.edu.cn'
p2166
aS'http://artint.nju.edu.cn'
p2167
aS'http://xxgk.nju.edu.cn'
p2168
aS'http://qinggongxiao.nju.edu.cn'
p2169
aS'http://med.nju.edu.cn'
p2170
aS'http://dii.nju.edu.cn/kuangym'
p2171
aS'http://dafls.nju.edu.cn'
p2172
aS'http://www.sfs.nju.edu.cn/yxjs/yxjs_xkjs-German.html'
p2173
aS'http://sociology.nju.edu.cn/index.php?id=2&module=department'
p2174
aS'http://www.sfs.nju.edu.cn'
p2175
aS'http://history.nju.edu.cn'
p2176
aS'http://semlab.nju.edu.cn'
p2177
aS'http://jc.nju.edu.cn/jcj.php'
p2178
aS'http://grawww.nju.edu.cn/html/zs/bsyjszs/1.html'
p2179
aS'http://tyb.nju.edu.cn'
p2180
aS'http://jw.nju.edu.cn/JiaoGai/YanJiuDongTai.asp'
p2181
aS'http://www.nicemice.cn'
p2182
aS'http://sociology.nju.edu.cn'
p2183
aS'http://cs.nju.edu.cn'
p2184
aS'http://rczp.nju.edu.cn'
p2185
aS'http://eng.nju.edu.cn'
p2186
aS'http://www1.nju.edu.cn/cps/site/material/mat/index.htm'
p2187
aS'http://rczp.nju.edu.cn/urp-portal/portal/group/Recruit'
p2188
aS'http://xiaobao.nju.edu.cn'
p2189
aS'http://grawww.nju.edu.cn/html/py/tz/1.html'
p2190
aS'http://www.njude.com.cn'
p2191
aS'http://acoustics.nju.edu.cn'
p2192
aS'http://ens.nju.edu.cn'
p2193
aS'http://lib.nju.edu.cn'
p2194
aS'http://www.miibeian.gov.cn'
p2195
aS'http://as.nju.edu.cn'
p2196
aS'http://www.sfs.nju.edu.cn/yxjs/yxjs_xkjs.html'
p2197
aS'http://tuanwei.nju.edu.cn/xstt/xsh'
p2198
aS'http://sociology.nju.edu.cn/index.php?id=1&module=department'
p2199
aS'http://ese.nju.edu.cn'
p2200
aS'http://software.nju.edu.cn'
p2201
aS'http://www.jlxy.nju.edu.cn'
p2202
aS'http://es.nju.edu.cn'
p2203
aS'http://durp.nju.edu.cn'
p2204
aS'http://www.sfs.nju.edu.cn/yxjs/yxjs_xkjs-spain.html'
p2205
aS'http://www.sfs.nju.edu.cn/yxjs/yxjs_xkjs-Japan.html'
p2206
aS'http://philo.nju.edu.cn'
p2207
aS'http://jc.nju.edu.cn/jca.php'
p2208
aS'http://tuanwei.nju.edu.cn/xstt/yjsh'
p2209
aS'http://cet.nju.edu.cn:155'
p2210
aS'http://public.nju.edu.cn'
p2211
aS'http://tuanwei.nju.edu.cn'
p2212
aS'http://charity.nju.edu.cn'
p2213
aS'http://tree.nju.edu.cn'
p2214
aS'http://www.sfs.nju.edu.cn/yxjs/yxjs_xkjs-Russian.html'
p2215
aS'http://physics.nju.edu.cn'
p2216
aS'http://grawww.nju.edu.cn/html/zs/ssyjszs/1.html'
p2217
aS'http://nubs.nju.edu.cn/intro.php/g6'
p2218
aS'http://nubs.nju.edu.cn/intro.php/g7'
p2219
aS'http://nubs.nju.edu.cn/intro.php/g4'
p2220
aS'http://nubs.nju.edu.cn/intro.php/g5'
p2221
aS'http://chin.nju.edu.cn'
p2222
aS'http://public.nju.edu.cn/dept/zzxx.aspx'
p2223
aS'http://nic.nju.edu.cn'
p2224
aS'http://public.nju.edu.cn/dept/xzgl.aspx'
p2225
aS'http://marxism.nju.edu.cn'
p2226
aS'http://tuanwei.nju.edu.cn/component/tags/tag/24'
p2227
aS'http://water.nju.edu.cn'
p2228
aS'http://dawww.nju.edu.cn'
p2229
aS'http://tres.nju.edu.cn/Search/Resbrowse.aspx?restype=04'
p2230
aS'http://ces.nju.edu.cn'
p2231
aS'http://jw.nju.edu.cn/ContentList.aspx?FType=WZSY&MType=PX-WZSY-BKJXGK&res_type=introduction'
p2232
aS'http://www1.nju.edu.cn/cps/site/NNUGF'
p2233
aS'http://xiaoban.nju.edu.cn/html/gltz/1.html'
p2234
aS'http://hwxy.nju.edu.cn'
p2235
aS'http://zhwh.nju.edu.cn'
p2236
aS'http://law.nju.edu.cn'
p2237
aS'http://www.njupolyji.com'
p2238
aS'http://job.nju.edu.cn'
p2239
aS'http://sgos.nju.edu.cn/hai.html'
p2240
aS'http://sociology.nju.edu.cn/index.php?id=3&module=department'
p2241
aS'http://jc.nju.edu.cn'
p2242
aS'http://jc.nju.edu.cn/jcn.php'
p2243
aS'http://www.nju.org.cn'
p2244
aS'http://nubs.nju.edu.cn/intro.php/j11'
p2245
aS'http://nubs.nju.edu.cn/intro.php/j13'
p2246
aS'http://nubs.nju.edu.cn/intro.php/j12'
p2247
aS'http://nubs.nju.edu.cn/intro.php/j14'
p2248
aS'http://postdoctors.nju.edu.cn'
p2249
aS'http://public.nju.edu.cn/dept/ldsh.aspx'
p2250
aS'http://chem.nju.edu.cn'
p2251
aS'http://eqpt.nju.edu.cn'
p2252
aS'http://edu.nju.edu.cn'
p2253
aS'http://astronomy.nju.edu.cn'
p2254
aS'http://hugeo.nju.edu.cn:8080'
p2255
aS'http://arch.nju.edu.cn'
p2256
aS'http://nubs.nju.edu.cn/intro.php/j8'
p2257
aS'http://geoinformatics.nju.edu.cn'
p2258
aS'http://hnc.nju.edu.cn'
p2259
aS'http://www.sfs.nju.edu.cn/yxjs/yxjs_xkjs-french.html'
p2260
aS'http://nubs.nju.edu.cn/intro.php/a'
p2261
aS'http://nubs.nju.edu.cn/intro.php/e'
p2262
aS'http://life.nju.edu.cn'
p2263
aS'http://bbs.nju.edu.cn/bbsdoc?board=V_Suggestions'
p2264
aS'http://njumaths.nju.edu.cn'
p2265
aS'http://arch.nju.edu.cn/index_da.htm'
p2266
aS'http://sgos.nju.edu.cn'
p2267
aS'http://yjy.nju.edu.cn'
p2268
aS'http://cssci.nju.edu.cn/login_u.html'
p2269
atRp2270
sg23
g47
((lp2271
S'http://lib.nju.edu.cn'
p2272
aS'http://grawww.nju.edu.cn/html/zs/bsyjszs/1.html'
p2273
aS'http://xiaoban.nju.edu.cn/html/gltz/1.html'
p2274
aS'http://job.nju.edu.cn'
p2275
aS'http://www.jlxy.nju.edu.cn'
p2276
aS'http://tuanwei.nju.edu.cn/xstt/yjsh'
p2277
aS'http://jw.nju.edu.cn/JiaoGai/YanJiuDongTai.asp'
p2278
aS'http://cet.nju.edu.cn:155'
p2279
aS'http://mail.nju.edu.cn'
p2280
aS'http://bbs.nju.edu.cn'
p2281
aS'http://tuanwei.nju.edu.cn'
p2282
aS'http://rczp.nju.edu.cn'
p2283
aS'http://tree.nju.edu.cn'
p2284
aS'http://rczp.nju.edu.cn/urp-portal/portal/group/Recruit'
p2285
aS'http://xiaobao.nju.edu.cn'
p2286
aS'http://gh.nju.edu.cn'
p2287
aS'http://news.nju.edu.cn'
p2288
aS'http://grawww.nju.edu.cn/html/zs/ssyjszs/1.html'
p2289
aS'http://grawww.nju.edu.cn/html/py/tz/1.html'
p2290
aS'http://www.njude.com.cn'
p2291
aS'http://postdoctors.nju.edu.cn'
p2292
aS'http://museum.nju.edu.cn'
p2293
aS'http://bkzs.nju.edu.cn'
p2294
aS'http://nic.nju.edu.cn'
p2295
aS'http://eqpt.nju.edu.cn'
p2296
aS'http://xxgk.nju.edu.cn'
p2297
aS'http://qinggongxiao.nju.edu.cn'
p2298
aS'http://skch.nju.edu.cn'
p2299
aS'http://www.miibeian.gov.cn'
p2300
aS'http://tuanwei.nju.edu.cn/component/tags/tag/24'
p2301
aS'http://dawww.nju.edu.cn'
p2302
aS'http://tres.nju.edu.cn/Search/Resbrowse.aspx?restype=04'
p2303
aS'http://ces.nju.edu.cn'
p2304
aS'http://jw.nju.edu.cn/ContentList.aspx?FType=WZSY&MType=PX-WZSY-BKJXGK&res_type=introduction'
p2305
aS'http://scit.nju.edu.cn'
p2306
aS'http://tuanwei.nju.edu.cn/xstt/xsh'
p2307
aS'http://hwxy.nju.edu.cn'
p2308
aS'http://www.nju.org.cn'
p2309
aS'http://bbs.nju.edu.cn/bbsdoc?board=V_Suggestions'
p2310
aS'http://cssci.nju.edu.cn/login_u.html'
p2311
aS'http://hwxy.nju.edu.cn/cn'
p2312
atRp2313
sg24
g47
((lp2314
S'http://lib.nju.edu.cn'
p2315
aS'http://grawww.nju.edu.cn/html/zs/bsyjszs/1.html'
p2316
aS'http://xiaoban.nju.edu.cn/html/gltz/1.html'
p2317
aS'http://job.nju.edu.cn'
p2318
aS'http://www.jlxy.nju.edu.cn'
p2319
aS'http://tuanwei.nju.edu.cn/xstt/yjsh'
p2320
aS'http://jw.nju.edu.cn/JiaoGai/YanJiuDongTai.asp'
p2321
aS'http://cet.nju.edu.cn:155'
p2322
aS'http://mail.nju.edu.cn'
p2323
aS'http://bbs.nju.edu.cn'
p2324
aS'http://tuanwei.nju.edu.cn'
p2325
aS'http://rczp.nju.edu.cn'
p2326
aS'http://tree.nju.edu.cn'
p2327
aS'http://rczp.nju.edu.cn/urp-portal/portal/group/Recruit'
p2328
aS'http://xiaobao.nju.edu.cn'
p2329
aS'http://gh.nju.edu.cn'
p2330
aS'http://news.nju.edu.cn'
p2331
aS'http://grawww.nju.edu.cn/html/zs/ssyjszs/1.html'
p2332
aS'http://grawww.nju.edu.cn/html/py/tz/1.html'
p2333
aS'http://www.njude.com.cn'
p2334
aS'http://postdoctors.nju.edu.cn'
p2335
aS'http://museum.nju.edu.cn'
p2336
aS'http://bkzs.nju.edu.cn'
p2337
aS'http://nic.nju.edu.cn'
p2338
aS'http://eqpt.nju.edu.cn'
p2339
aS'http://xxgk.nju.edu.cn'
p2340
aS'http://qinggongxiao.nju.edu.cn'
p2341
aS'http://www.miibeian.gov.cn'
p2342
aS'http://www.swliuxue.com/school-4803.html'
p2343
aS'http://tuanwei.nju.edu.cn/component/tags/tag/24'
p2344
aS'http://dawww.nju.edu.cn'
p2345
aS'http://tres.nju.edu.cn/Search/Resbrowse.aspx?restype=04'
p2346
aS'http://ces.nju.edu.cn'
p2347
aS'http://jw.nju.edu.cn/ContentList.aspx?FType=WZSY&MType=PX-WZSY-BKJXGK&res_type=introduction'
p2348
aS'http://tuanwei.nju.edu.cn/xstt/xsh'
p2349
aS'http://hwxy.nju.edu.cn'
p2350
aS'http://www.nju.org.cn'
p2351
aS'http://bbs.nju.edu.cn/bbsdoc?board=V_Suggestions'
p2352
aS'http://cssci.nju.edu.cn/login_u.html'
p2353
aS'http://hwxy.nju.edu.cn/cn'
p2354
atRp2355
sg25
g47
((lp2356
S'http://lib.nju.edu.cn'
p2357
aS'http://jw.nju.edu.cn/allContentDetail.aspx?id=20130106-15131389%7E0b8db154&res=PX-WZSY-BKJXGK'
p2358
aS'http://grawww.nju.edu.cn/html/zs/bsyjszs/1.html'
p2359
aS'http://jw.nju.edu.cn/allContentDetail.aspx?id=20130106-15133321%7Eab032a59&res=PX-WZSY-BKJXGK'
p2360
aS'http://jw.nju.edu.cn/allContentDetail.aspx?id=20130709-11110446%7E1fdce2a6&res=PX-WZSY-BKJXGK'
p2361
aS'http://xiaoban.nju.edu.cn/html/gltz/1.html'
p2362
aS'http://job.nju.edu.cn'
p2363
aS'http://www.jlxy.nju.edu.cn'
p2364
aS'http://jw.nju.edu.cn/allContentDetail.aspx?MenuType=PX-WZSY-BKJXGK-BKJXGKBGGL&id=20141022-02424851%7Ef9194c4c'
p2365
aS'http://tuanwei.nju.edu.cn/xstt/yjsh'
p2366
aS'http://jw.nju.edu.cn/JiaoGai/YanJiuDongTai.asp'
p2367
aS'http://cet.nju.edu.cn:155'
p2368
aS'http://mail.nju.edu.cn'
p2369
aS'http://jw.nju.edu.cn/allContentDetail.aspx?id=20130106-15112189%7E180ed62d&res=PX-WZSY-BKJXGK'
p2370
aS'http://jw.nju.edu.cn/allContentDetail.aspx?id=20130106-14255375%7Eef710630&res=PX-WZSY-BKJXGK'
p2371
aS'http://tuanwei.nju.edu.cn'
p2372
aS'http://rczp.nju.edu.cn'
p2373
aS'http://jw.nju.edu.cn/allContentDetail.aspx?MenuType=PX-WZSY-BKJXGK-BKJXGKBGGL&id=20141022-02383404%7Ef0cff348'
p2374
aS'http://tree.nju.edu.cn'
p2375
aS'http://jw.nju.edu.cn/allContentDetail.aspx?id=20130106-15115459%7E42472a4d&res=PX-WZSY-BKJXGK'
p2376
aS'http://rczp.nju.edu.cn/urp-portal/portal/group/Recruit'
p2377
aS'http://xiaobao.nju.edu.cn'
p2378
aS'http://gh.nju.edu.cn'
p2379
aS'http://news.nju.edu.cn'
p2380
aS'http://grawww.nju.edu.cn/html/zs/ssyjszs/1.html'
p2381
aS'http://grawww.nju.edu.cn/html/py/tz/1.html'
p2382
aS'http://www.njude.com.cn'
p2383
aS'http://jw.nju.edu.cn/allContentDetail.aspx?id=20130106-15124482%7Ec781092c&res=PX-WZSY-BKJXGK'
p2384
aS'http://postdoctors.nju.edu.cn'
p2385
aS'http://museum.nju.edu.cn'
p2386
aS'http://bkzs.nju.edu.cn'
p2387
aS'http://nic.nju.edu.cn'
p2388
aS'http://eqpt.nju.edu.cn'
p2389
aS'http://xxgk.nju.edu.cn'
p2390
aS'http://qinggongxiao.nju.edu.cn'
p2391
aS'http://www.miibeian.gov.cn'
p2392
aS'http://tuanwei.nju.edu.cn/component/tags/tag/24'
p2393
aS'http://bbs.nju.edu.cn'
p2394
aS'http://dawww.nju.edu.cn'
p2395
aS'http://jw.nju.edu.cn/allContentDetail.aspx?id=20130106-15113660%7E73a12b33&res=PX-WZSY-BKJXGK'
p2396
aS'http://tres.nju.edu.cn/Search/Resbrowse.aspx?restype=04'
p2397
aS'http://ces.nju.edu.cn'
p2398
aS'http://jw.nju.edu.cn/ContentList.aspx?FType=WZSY&MType=PX-WZSY-BKJXGK&res_type=introduction'
p2399
aS'http://jw.nju.edu.cn/allContentDetail.aspx?id=20130106-15110534%7Ec543f9f0&res=PX-WZSY-BKJXGK'
p2400
aS'http://tuanwei.nju.edu.cn/xstt/xsh'
p2401
aS'http://hwxy.nju.edu.cn'
p2402
aS'http://www.nju.org.cn'
p2403
aS'http://bbs.nju.edu.cn/bbsdoc?board=V_Suggestions'
p2404
aS'http://jw.nju.edu.cn/allContentDetail.aspx?id=20130106-15134804%7Efb5f2438&res=PX-WZSY-BKJXGK'
p2405
aS'http://jw.nju.edu.cn/allContentDetail.aspx?id=20130106-15122523%7Ebb546ec0&res=PX-WZSY-BKJXGK'
p2406
aS'http://cssci.nju.edu.cn/login_u.html'
p2407
aS'http://hwxy.nju.edu.cn/cn'
p2408
atRp2409
sg26
g47
((lp2410
S'http://lib.nju.edu.cn'
p2411
aS'http://grawww.nju.edu.cn/html/zs/bsyjszs/1.html'
p2412
aS'http://xiaoban.nju.edu.cn/html/gltz/1.html'
p2413
aS'http://job.nju.edu.cn'
p2414
aS'http://www.jlxy.nju.edu.cn'
p2415
aS'http://tuanwei.nju.edu.cn/xstt/yjsh'
p2416
aS'http://jw.nju.edu.cn/JiaoGai/YanJiuDongTai.asp'
p2417
aS'http://cet.nju.edu.cn:155'
p2418
aS'http://mail.nju.edu.cn'
p2419
aS'http://bbs.nju.edu.cn'
p2420
aS'http://tuanwei.nju.edu.cn'
p2421
aS'http://rczp.nju.edu.cn'
p2422
aS'http://tree.nju.edu.cn'
p2423
aS'http://rczp.nju.edu.cn/urp-portal/portal/group/Recruit'
p2424
aS'http://museum.nju.edu.cn/univerhistory/index_02.asp?column=01'
p2425
aS'http://xiaobao.nju.edu.cn'
p2426
aS'http://gh.nju.edu.cn'
p2427
aS'http://news.nju.edu.cn'
p2428
aS'http://grawww.nju.edu.cn/html/zs/ssyjszs/1.html'
p2429
aS'http://grawww.nju.edu.cn/html/py/tz/1.html'
p2430
aS'http://www.njude.com.cn'
p2431
aS'http://postdoctors.nju.edu.cn'
p2432
aS'http://museum.nju.edu.cn'
p2433
aS'http://bkzs.nju.edu.cn'
p2434
aS'http://nic.nju.edu.cn'
p2435
aS'http://eqpt.nju.edu.cn'
p2436
aS'http://xxgk.nju.edu.cn'
p2437
aS'http://qinggongxiao.nju.edu.cn'
p2438
aS'http://www.miibeian.gov.cn'
p2439
aS'http://tuanwei.nju.edu.cn/component/tags/tag/24'
p2440
aS'http://dawww.nju.edu.cn'
p2441
aS'http://tres.nju.edu.cn/Search/Resbrowse.aspx?restype=04'
p2442
aS'http://ces.nju.edu.cn'
p2443
aS'http://jw.nju.edu.cn/ContentList.aspx?FType=WZSY&MType=PX-WZSY-BKJXGK&res_type=introduction'
p2444
aS'http://tuanwei.nju.edu.cn/xstt/xsh'
p2445
aS'http://hwxy.nju.edu.cn'
p2446
aS'http://www.nju.org.cn'
p2447
aS'http://bbs.nju.edu.cn/bbsdoc?board=V_Suggestions'
p2448
aS'http://cssci.nju.edu.cn/login_u.html'
p2449
aS'http://hwxy.nju.edu.cn/cn'
p2450
atRp2451
sg27
g47
((lp2452
S'http://lib.nju.edu.cn'
p2453
aS'http://grawww.nju.edu.cn/html/zs/bsyjszs/1.html'
p2454
aS'http://xiaoban.nju.edu.cn/html/gltz/1.html'
p2455
aS'http://job.nju.edu.cn'
p2456
aS'http://www.jlxy.nju.edu.cn'
p2457
aS'http://tuanwei.nju.edu.cn/xstt/yjsh'
p2458
aS'http://jw.nju.edu.cn/JiaoGai/YanJiuDongTai.asp'
p2459
aS'http://cet.nju.edu.cn:155'
p2460
aS'http://mail.nju.edu.cn'
p2461
aS'http://bbs.nju.edu.cn'
p2462
aS'http://tuanwei.nju.edu.cn'
p2463
aS'http://rczp.nju.edu.cn'
p2464
aS'http://tree.nju.edu.cn'
p2465
aS'http://rczp.nju.edu.cn/urp-portal/portal/group/Recruit'
p2466
aS'http://xiaobao.nju.edu.cn'
p2467
aS'http://gh.nju.edu.cn'
p2468
aS'http://news.nju.edu.cn'
p2469
aS'http://grawww.nju.edu.cn/html/zs/ssyjszs/1.html'
p2470
aS'http://grawww.nju.edu.cn/html/py/tz/1.html'
p2471
aS'http://www.njude.com.cn'
p2472
aS'http://postdoctors.nju.edu.cn'
p2473
aS'http://museum.nju.edu.cn'
p2474
aS'http://bkzs.nju.edu.cn'
p2475
aS'http://nic.nju.edu.cn'
p2476
aS'http://eqpt.nju.edu.cn'
p2477
aS'http://xxgk.nju.edu.cn'
p2478
aS'http://qinggongxiao.nju.edu.cn'
p2479
aS'http://www.miibeian.gov.cn'
p2480
aS'http://tuanwei.nju.edu.cn/component/tags/tag/24'
p2481
aS'http://dawww.nju.edu.cn'
p2482
aS'http://tres.nju.edu.cn/Search/Resbrowse.aspx?restype=04'
p2483
aS'http://ces.nju.edu.cn'
p2484
aS'http://jw.nju.edu.cn/ContentList.aspx?FType=WZSY&MType=PX-WZSY-BKJXGK&res_type=introduction'
p2485
aS'http://tuanwei.nju.edu.cn/xstt/xsh'
p2486
aS'http://hwxy.nju.edu.cn'
p2487
aS'http://www.nju.org.cn'
p2488
aS'http://bbs.nju.edu.cn/bbsdoc?board=V_Suggestions'
p2489
aS'http://cssci.nju.edu.cn/login_u.html'
p2490
aS'http://hwxy.nju.edu.cn/cn'
p2491
atRp2492
sg28
g47
((lp2493
S'http://lib.nju.edu.cn'
p2494
aS'http://grawww.nju.edu.cn/html/zs/bsyjszs/1.html'
p2495
aS'http://ndzcgs.nju.edu.cn'
p2496
aS'http://press.nju.edu.cn'
p2497
aS'http://jns.nju.edu.cn'
p2498
aS'http://xiaoban.nju.edu.cn/html/gltz/1.html'
p2499
aS'http://www.nju-yq.com'
p2500
aS'http://job.nju.edu.cn'
p2501
aS'http://www.jlxy.nju.edu.cn'
p2502
aS'http://tuanwei.nju.edu.cn/xstt/yjsh'
p2503
aS'http://jw.nju.edu.cn/JiaoGai/YanJiuDongTai.asp'
p2504
aS'http://cet.nju.edu.cn:155'
p2505
aS'http://mail.nju.edu.cn'
p2506
aS'http://bbs.nju.edu.cn'
p2507
aS'http://tuanwei.nju.edu.cn'
p2508
aS'http://rczp.nju.edu.cn'
p2509
aS'http://tree.nju.edu.cn'
p2510
aS'http://hqjt.nju.edu.cn'
p2511
aS'http://cma.nju.edu.cn'
p2512
aS'http://rczp.nju.edu.cn/urp-portal/portal/group/Recruit'
p2513
aS'http://es.nju.edu.cn'
p2514
aS'http://hospital.nju.edu.cn'
p2515
aS'http://xiaobao.nju.edu.cn'
p2516
aS'http://gh.nju.edu.cn'
p2517
aS'http://news.nju.edu.cn'
p2518
aS'http://grawww.nju.edu.cn/html/zs/ssyjszs/1.html'
p2519
aS'http://grawww.nju.edu.cn/html/py/tz/1.html'
p2520
aS'http://www.njude.com.cn'
p2521
aS'http://xlzx.nju.edu.cn'
p2522
aS'http://postdoctors.nju.edu.cn'
p2523
aS'http://museum.nju.edu.cn'
p2524
aS'http://bkzs.nju.edu.cn'
p2525
aS'http://nic.nju.edu.cn'
p2526
aS'http://eqpt.nju.edu.cn'
p2527
aS'http://xxgk.nju.edu.cn'
p2528
aS'http://qinggongxiao.nju.edu.cn'
p2529
aS'http://www.miibeian.gov.cn'
p2530
aS'http://tuanwei.nju.edu.cn/component/tags/tag/24'
p2531
aS'http://dawww.nju.edu.cn'
p2532
aS'http://tres.nju.edu.cn/Search/Resbrowse.aspx?restype=04'
p2533
aS'http://ces.nju.edu.cn'
p2534
aS'http://jw.nju.edu.cn/ContentList.aspx?FType=WZSY&MType=PX-WZSY-BKJXGK&res_type=introduction'
p2535
aS'http://cssrac.nju.edu.cn'
p2536
aS'http://tuanwei.nju.edu.cn/xstt/xsh'
p2537
aS'http://hwxy.nju.edu.cn'
p2538
aS'http://cet.nju.edu.cn'
p2539
aS'http://www.nju.org.cn'
p2540
aS'http://bbs.nju.edu.cn/bbsdoc?board=V_Suggestions'
p2541
aS'http://ndxb.nju.edu.cn'
p2542
aS'http://cssci.nju.edu.cn/login_u.html'
p2543
aS'http://hwxy.nju.edu.cn/cn'
p2544
atRp2545
sg29
g47
((lp2546
S'http://lib.nju.edu.cn'
p2547
aS'http://grawww.nju.edu.cn/html/zs/bsyjszs/1.html'
p2548
aS'http://xiaoban.nju.edu.cn/html/gltz/1.html'
p2549
aS'http://job.nju.edu.cn'
p2550
aS'http://www.jlxy.nju.edu.cn'
p2551
aS'http://tuanwei.nju.edu.cn/xstt/yjsh'
p2552
aS'http://jw.nju.edu.cn/JiaoGai/YanJiuDongTai.asp'
p2553
aS'http://cet.nju.edu.cn:155'
p2554
aS'http://mail.nju.edu.cn'
p2555
aS'http://bbs.nju.edu.cn'
p2556
aS'http://tuanwei.nju.edu.cn'
p2557
aS'http://rczp.nju.edu.cn'
p2558
aS'http://tree.nju.edu.cn'
p2559
aS'http://rczp.nju.edu.cn/urp-portal/portal/group/Recruit'
p2560
aS'http://xiaobao.nju.edu.cn'
p2561
aS'http://gh.nju.edu.cn'
p2562
aS'http://news.nju.edu.cn'
p2563
aS'http://grawww.nju.edu.cn/html/zs/ssyjszs/1.html'
p2564
aS'http://grawww.nju.edu.cn/html/py/tz/1.html'
p2565
aS'http://www.njude.com.cn'
p2566
aS'http://postdoctors.nju.edu.cn'
p2567
aS'http://museum.nju.edu.cn'
p2568
aS'http://bkzs.nju.edu.cn'
p2569
aS'http://nic.nju.edu.cn'
p2570
aS'http://eqpt.nju.edu.cn'
p2571
aS'http://xxgk.nju.edu.cn'
p2572
aS'http://qinggongxiao.nju.edu.cn'
p2573
aS'http://www.miibeian.gov.cn'
p2574
aS'http://tuanwei.nju.edu.cn/component/tags/tag/24'
p2575
aS'http://dawww.nju.edu.cn'
p2576
aS'http://tres.nju.edu.cn/Search/Resbrowse.aspx?restype=04'
p2577
aS'http://ces.nju.edu.cn'
p2578
aS'http://jw.nju.edu.cn/ContentList.aspx?FType=WZSY&MType=PX-WZSY-BKJXGK&res_type=introduction'
p2579
aS'http://tuanwei.nju.edu.cn/xstt/xsh'
p2580
aS'http://hwxy.nju.edu.cn'
p2581
aS'http://www.nju.org.cn'
p2582
aS'http://bbs.nju.edu.cn/bbsdoc?board=V_Suggestions'
p2583
aS'http://cssci.nju.edu.cn/login_u.html'
p2584
aS'http://hwxy.nju.edu.cn/cn'
p2585
atRp2586
sg30
g47
((lp2587
S'http://lib.nju.edu.cn'
p2588
aS'http://grawww.nju.edu.cn/html/zs/bsyjszs/1.html'
p2589
aS'http://xiaoban.nju.edu.cn/html/gltz/1.html'
p2590
aS'http://job.nju.edu.cn'
p2591
aS'http://www.jlxy.nju.edu.cn'
p2592
aS'http://tuanwei.nju.edu.cn/xstt/yjsh'
p2593
aS'http://jw.nju.edu.cn/JiaoGai/YanJiuDongTai.asp'
p2594
aS'http://cet.nju.edu.cn:155'
p2595
aS'http://mail.nju.edu.cn'
p2596
aS'http://bbs.nju.edu.cn'
p2597
aS'http://tuanwei.nju.edu.cn'
p2598
aS'http://rczp.nju.edu.cn'
p2599
aS'http://tree.nju.edu.cn'
p2600
aS'http://rczp.nju.edu.cn/urp-portal/portal/group/Recruit'
p2601
aS'http://xiaobao.nju.edu.cn'
p2602
aS'http://gh.nju.edu.cn'
p2603
aS'http://news.nju.edu.cn'
p2604
aS'http://grawww.nju.edu.cn/html/zs/ssyjszs/1.html'
p2605
aS'http://grawww.nju.edu.cn/html/py/tz/1.html'
p2606
aS'http://www.njude.com.cn'
p2607
aS'http://law.nju.edu.cn/deutsch/main.asp'
p2608
aS'http://postdoctors.nju.edu.cn'
p2609
aS'http://museum.nju.edu.cn'
p2610
aS'http://bkzs.nju.edu.cn'
p2611
aS'http://nic.nju.edu.cn'
p2612
aS'http://eqpt.nju.edu.cn'
p2613
aS'http://xxgk.nju.edu.cn'
p2614
aS'http://qinggongxiao.nju.edu.cn'
p2615
aS'http://www.hwaying.net'
p2616
aS'http://www.miibeian.gov.cn'
p2617
aS'http://tuanwei.nju.edu.cn/component/tags/tag/24'
p2618
aS'http://dawww.nju.edu.cn'
p2619
aS'http://tres.nju.edu.cn/Search/Resbrowse.aspx?restype=04'
p2620
aS'http://ces.nju.edu.cn'
p2621
aS'http://jw.nju.edu.cn/ContentList.aspx?FType=WZSY&MType=PX-WZSY-BKJXGK&res_type=introduction'
p2622
aS'http://tuanwei.nju.edu.cn/xstt/xsh'
p2623
aS'http://hnc.nju.edu.cn'
p2624
aS'http://a200980278.oinsite.cn'
p2625
aS'http://zrzx.nju.edu.cn'
p2626
aS'http://hwxy.nju.edu.cn'
p2627
aS'http://www.nju.org.cn'
p2628
aS'http://bbs.nju.edu.cn/bbsdoc?board=V_Suggestions'
p2629
aS'http://sdibc.nju.edu.cn'
p2630
aS'http://cssci.nju.edu.cn/login_u.html'
p2631
aS'http://hwxy.nju.edu.cn/cn'
p2632
atRp2633
sg31
g47
((lp2634
S'http://lib.nju.edu.cn'
p2635
aS'http://grawww.nju.edu.cn/html/zs/bsyjszs/1.html'
p2636
aS'http://xiaoban.nju.edu.cn/html/gltz/1.html'
p2637
aS'http://job.nju.edu.cn'
p2638
aS'http://www.jlxy.nju.edu.cn'
p2639
aS'http://tuanwei.nju.edu.cn/xstt/yjsh'
p2640
aS'http://jw.nju.edu.cn/JiaoGai/YanJiuDongTai.asp'
p2641
aS'http://cet.nju.edu.cn:155'
p2642
aS'http://mail.nju.edu.cn'
p2643
aS'http://bbs.nju.edu.cn'
p2644
aS'http://tuanwei.nju.edu.cn'
p2645
aS'http://rczp.nju.edu.cn'
p2646
aS'http://tree.nju.edu.cn'
p2647
aS'http://rczp.nju.edu.cn/urp-portal/portal/group/Recruit'
p2648
aS'http://xiaobao.nju.edu.cn'
p2649
aS'http://gh.nju.edu.cn'
p2650
aS'http://news.nju.edu.cn'
p2651
aS'http://grawww.nju.edu.cn/html/zs/ssyjszs/1.html'
p2652
aS'http://grawww.nju.edu.cn/html/py/tz/1.html'
p2653
aS'http://www.njude.com.cn'
p2654
aS'http://postdoctors.nju.edu.cn'
p2655
aS'http://museum.nju.edu.cn'
p2656
aS'http://bkzs.nju.edu.cn'
p2657
aS'http://nic.nju.edu.cn'
p2658
aS'http://eqpt.nju.edu.cn'
p2659
aS'http://xxgk.nju.edu.cn'
p2660
aS'http://qinggongxiao.nju.edu.cn'
p2661
aS'http://skch.nju.edu.cn'
p2662
aS'http://www.miibeian.gov.cn'
p2663
aS'http://tuanwei.nju.edu.cn/component/tags/tag/24'
p2664
aS'http://dawww.nju.edu.cn'
p2665
aS'http://tres.nju.edu.cn/Search/Resbrowse.aspx?restype=04'
p2666
aS'http://ces.nju.edu.cn'
p2667
aS'http://jw.nju.edu.cn/ContentList.aspx?FType=WZSY&MType=PX-WZSY-BKJXGK&res_type=introduction'
p2668
aS'http://scit.nju.edu.cn'
p2669
aS'http://tuanwei.nju.edu.cn/xstt/xsh'
p2670
aS'http://hwxy.nju.edu.cn'
p2671
aS'http://www.nju.org.cn'
p2672
aS'http://bbs.nju.edu.cn/bbsdoc?board=V_Suggestions'
p2673
aS'http://dawww.nju.edu.cn/pub/?id=22&op=more'
p2674
aS'http://cssci.nju.edu.cn/login_u.html'
p2675
aS'http://hwxy.nju.edu.cn/cn'
p2676
atRp2677
sg32
g47
((lp2678
S'http://lib.nju.edu.cn'
p2679
aS'http://grawww.nju.edu.cn/html/zs/bsyjszs/1.html'
p2680
aS'http://xiaoban.nju.edu.cn/html/gltz/1.html'
p2681
aS'http://job.nju.edu.cn'
p2682
aS'http://www.jlxy.nju.edu.cn'
p2683
aS'http://tuanwei.nju.edu.cn/xstt/yjsh'
p2684
aS'http://jw.nju.edu.cn/JiaoGai/YanJiuDongTai.asp'
p2685
aS'http://cet.nju.edu.cn:155'
p2686
aS'http://mail.nju.edu.cn'
p2687
aS'http://bbs.nju.edu.cn'
p2688
aS'http://tuanwei.nju.edu.cn'
p2689
aS'http://rczp.nju.edu.cn'
p2690
aS'http://tree.nju.edu.cn'
p2691
aS'http://rczp.nju.edu.cn/urp-portal/portal/group/Recruit'
p2692
aS'http://xiaobao.nju.edu.cn'
p2693
aS'http://gh.nju.edu.cn'
p2694
aS'http://news.nju.edu.cn'
p2695
aS'http://grawww.nju.edu.cn/html/zs/ssyjszs/1.html'
p2696
aS'http://grawww.nju.edu.cn/html/py/tz/1.html'
p2697
aS'http://www.njude.com.cn'
p2698
aS'http://postdoctors.nju.edu.cn'
p2699
aS'http://museum.nju.edu.cn'
p2700
aS'http://bkzs.nju.edu.cn'
p2701
aS'http://nic.nju.edu.cn'
p2702
aS'http://eqpt.nju.edu.cn'
p2703
aS'http://xxgk.nju.edu.cn'
p2704
aS'http://qinggongxiao.nju.edu.cn'
p2705
aS'http://www.miibeian.gov.cn'
p2706
aS'http://tuanwei.nju.edu.cn/component/tags/tag/24'
p2707
aS'http://dawww.nju.edu.cn'
p2708
aS'http://tres.nju.edu.cn/Search/Resbrowse.aspx?restype=04'
p2709
aS'http://ces.nju.edu.cn'
p2710
aS'http://jw.nju.edu.cn/ContentList.aspx?FType=WZSY&MType=PX-WZSY-BKJXGK&res_type=introduction'
p2711
aS'http://tuanwei.nju.edu.cn/xstt/xsh'
p2712
aS'http://hwxy.nju.edu.cn'
p2713
aS'http://www.nju.org.cn'
p2714
aS'http://bbs.nju.edu.cn/bbsdoc?board=V_Suggestions'
p2715
aS'http://cssci.nju.edu.cn/login_u.html'
p2716
aS'http://hwxy.nju.edu.cn/cn'
p2717
atRp2718
sg33
g47
((lp2719
S'http://lib.nju.edu.cn'
p2720
aS'http://grawww.nju.edu.cn/html/zs/bsyjszs/1.html'
p2721
aS'http://xiaoban.nju.edu.cn/html/gltz/1.html'
p2722
aS'http://job.nju.edu.cn'
p2723
aS'http://www.jlxy.nju.edu.cn'
p2724
aS'http://tuanwei.nju.edu.cn/xstt/yjsh'
p2725
aS'http://jw.nju.edu.cn/JiaoGai/YanJiuDongTai.asp'
p2726
aS'http://cet.nju.edu.cn:155'
p2727
aS'http://mail.nju.edu.cn'
p2728
aS'http://bbs.nju.edu.cn'
p2729
aS'http://tuanwei.nju.edu.cn'
p2730
aS'http://rczp.nju.edu.cn'
p2731
aS'http://tree.nju.edu.cn'
p2732
aS'http://rczp.nju.edu.cn/urp-portal/portal/group/Recruit'
p2733
aS'http://xiaobao.nju.edu.cn'
p2734
aS'http://gh.nju.edu.cn'
p2735
aS'http://news.nju.edu.cn'
p2736
aS'http://grawww.nju.edu.cn/html/zs/ssyjszs/1.html'
p2737
aS'http://grawww.nju.edu.cn/html/py/tz/1.html'
p2738
aS'http://www.njude.com.cn'
p2739
aS'http://postdoctors.nju.edu.cn'
p2740
aS'http://museum.nju.edu.cn'
p2741
aS'http://bkzs.nju.edu.cn'
p2742
aS'http://nic.nju.edu.cn'
p2743
aS'http://eqpt.nju.edu.cn'
p2744
aS'http://xxgk.nju.edu.cn'
p2745
aS'http://qinggongxiao.nju.edu.cn'
p2746
aS'http://www.miibeian.gov.cn'
p2747
aS'http://tuanwei.nju.edu.cn/component/tags/tag/24'
p2748
aS'http://dawww.nju.edu.cn'
p2749
aS'http://tres.nju.edu.cn/Search/Resbrowse.aspx?restype=04'
p2750
aS'http://ces.nju.edu.cn'
p2751
aS'http://jw.nju.edu.cn/ContentList.aspx?FType=WZSY&MType=PX-WZSY-BKJXGK&res_type=introduction'
p2752
aS'http://tuanwei.nju.edu.cn/xstt/xsh'
p2753
aS'http://hwxy.nju.edu.cn'
p2754
aS'http://www.nju.org.cn'
p2755
aS'http://bbs.nju.edu.cn/bbsdoc?board=V_Suggestions'
p2756
aS'http://cssci.nju.edu.cn/login_u.html'
p2757
aS'http://hwxy.nju.edu.cn/cn'
p2758
atRp2759
sg34
g47
((lp2760
S'http://lib.nju.edu.cn'
p2761
aS'http://grawww.nju.edu.cn/html/zs/bsyjszs/1.html'
p2762
aS'http://xiaoban.nju.edu.cn/html/gltz/1.html'
p2763
aS'http://job.nju.edu.cn'
p2764
aS'http://www.jlxy.nju.edu.cn'
p2765
aS'http://tuanwei.nju.edu.cn/xstt/yjsh'
p2766
aS'http://jw.nju.edu.cn/JiaoGai/YanJiuDongTai.asp'
p2767
aS'http://cet.nju.edu.cn:155'
p2768
aS'http://mail.nju.edu.cn'
p2769
aS'http://bbs.nju.edu.cn'
p2770
aS'http://tuanwei.nju.edu.cn'
p2771
aS'http://rczp.nju.edu.cn'
p2772
aS'http://tree.nju.edu.cn'
p2773
aS'http://rczp.nju.edu.cn/urp-portal/portal/group/Recruit'
p2774
aS'http://xiaobao.nju.edu.cn'
p2775
aS'http://gh.nju.edu.cn'
p2776
aS'http://news.nju.edu.cn'
p2777
aS'http://grawww.nju.edu.cn/html/zs/ssyjszs/1.html'
p2778
aS'http://grawww.nju.edu.cn/html/py/tz/1.html'
p2779
aS'http://www.njude.com.cn'
p2780
aS'http://postdoctors.nju.edu.cn'
p2781
aS'http://museum.nju.edu.cn'
p2782
aS'http://bkzs.nju.edu.cn'
p2783
aS'http://nic.nju.edu.cn'
p2784
aS'http://eqpt.nju.edu.cn'
p2785
aS'http://xxgk.nju.edu.cn'
p2786
aS'http://qinggongxiao.nju.edu.cn'
p2787
aS'http://skch.nju.edu.cn'
p2788
aS'http://www.miibeian.gov.cn'
p2789
aS'http://tuanwei.nju.edu.cn/component/tags/tag/24'
p2790
aS'http://dawww.nju.edu.cn'
p2791
aS'http://tres.nju.edu.cn/Search/Resbrowse.aspx?restype=04'
p2792
aS'http://ces.nju.edu.cn'
p2793
aS'http://jw.nju.edu.cn/ContentList.aspx?FType=WZSY&MType=PX-WZSY-BKJXGK&res_type=introduction'
p2794
aS'http://scit.nju.edu.cn'
p2795
aS'http://tuanwei.nju.edu.cn/xstt/xsh'
p2796
aS'http://hwxy.nju.edu.cn'
p2797
aS'http://www.nju.org.cn'
p2798
aS'http://bbs.nju.edu.cn/bbsdoc?board=V_Suggestions'
p2799
aS'http://cssci.nju.edu.cn/login_u.html'
p2800
aS'http://hwxy.nju.edu.cn/cn'
p2801
atRp2802
sg35
g47
((lp2803
S'http://lib.nju.edu.cn'
p2804
aS'http://grawww.nju.edu.cn/html/zs/bsyjszs/1.html'
p2805
aS'http://xiaoban.nju.edu.cn/html/gltz/1.html'
p2806
aS'http://job.nju.edu.cn'
p2807
aS'http://www.jlxy.nju.edu.cn'
p2808
aS'http://tuanwei.nju.edu.cn/xstt/yjsh'
p2809
aS'http://skch.nju.edu.cn/institution.php'
p2810
aS'http://jw.nju.edu.cn/JiaoGai/YanJiuDongTai.asp'
p2811
aS'http://cet.nju.edu.cn:155'
p2812
aS'http://mail.nju.edu.cn'
p2813
aS'http://bbs.nju.edu.cn'
p2814
aS'http://tuanwei.nju.edu.cn'
p2815
aS'http://rczp.nju.edu.cn'
p2816
aS'http://tree.nju.edu.cn'
p2817
aS'http://rczp.nju.edu.cn/urp-portal/portal/group/Recruit'
p2818
aS'http://xiaobao.nju.edu.cn'
p2819
aS'http://gh.nju.edu.cn'
p2820
aS'http://news.nju.edu.cn'
p2821
aS'http://grawww.nju.edu.cn/html/zs/ssyjszs/1.html'
p2822
aS'http://grawww.nju.edu.cn/html/py/tz/1.html'
p2823
aS'http://www.njude.com.cn'
p2824
aS'http://postdoctors.nju.edu.cn'
p2825
aS'http://museum.nju.edu.cn'
p2826
aS'http://bkzs.nju.edu.cn'
p2827
aS'http://nic.nju.edu.cn'
p2828
aS'http://eqpt.nju.edu.cn'
p2829
aS'http://xxgk.nju.edu.cn'
p2830
aS'http://qinggongxiao.nju.edu.cn'
p2831
aS'http://www.miibeian.gov.cn'
p2832
aS'http://tuanwei.nju.edu.cn/component/tags/tag/24'
p2833
aS'http://dawww.nju.edu.cn'
p2834
aS'http://tres.nju.edu.cn/Search/Resbrowse.aspx?restype=04'
p2835
aS'http://ces.nju.edu.cn'
p2836
aS'http://jw.nju.edu.cn/ContentList.aspx?FType=WZSY&MType=PX-WZSY-BKJXGK&res_type=introduction'
p2837
aS'http://tuanwei.nju.edu.cn/xstt/xsh'
p2838
aS'http://hwxy.nju.edu.cn'
p2839
aS'http://www.nju.org.cn'
p2840
aS'http://bbs.nju.edu.cn/bbsdoc?board=V_Suggestions'
p2841
aS'http://cssci.nju.edu.cn/login_u.html'
p2842
aS'http://hwxy.nju.edu.cn/cn'
p2843
atRp2844
sg36
g47
((lp2845
S'http://lib.nju.edu.cn'
p2846
aS'http://grawww.nju.edu.cn/html/zs/bsyjszs/1.html'
p2847
aS'http://xiaoban.nju.edu.cn/html/gltz/1.html'
p2848
aS'http://job.nju.edu.cn'
p2849
aS'http://www.jlxy.nju.edu.cn'
p2850
aS'http://tuanwei.nju.edu.cn/xstt/yjsh'
p2851
aS'http://jw.nju.edu.cn/JiaoGai/YanJiuDongTai.asp'
p2852
aS'http://cet.nju.edu.cn:155'
p2853
aS'http://mail.nju.edu.cn'
p2854
aS'http://bbs.nju.edu.cn'
p2855
aS'http://tuanwei.nju.edu.cn'
p2856
aS'http://rczp.nju.edu.cn'
p2857
aS'http://tree.nju.edu.cn'
p2858
aS'http://rczp.nju.edu.cn/urp-portal/portal/group/Recruit'
p2859
aS'http://xiaobao.nju.edu.cn'
p2860
aS'http://gh.nju.edu.cn'
p2861
aS'http://news.nju.edu.cn'
p2862
aS'http://grawww.nju.edu.cn/html/zs/ssyjszs/1.html'
p2863
aS'http://grawww.nju.edu.cn/html/py/tz/1.html'
p2864
aS'http://www.njude.com.cn'
p2865
aS'http://postdoctors.nju.edu.cn'
p2866
aS'http://museum.nju.edu.cn'
p2867
aS'http://bkzs.nju.edu.cn'
p2868
aS'http://nic.nju.edu.cn'
p2869
aS'http://eqpt.nju.edu.cn'
p2870
aS'http://xxgk.nju.edu.cn'
p2871
aS'http://qinggongxiao.nju.edu.cn'
p2872
aS'http://www.miibeian.gov.cn'
p2873
aS'http://tuanwei.nju.edu.cn/component/tags/tag/24'
p2874
aS'http://dawww.nju.edu.cn'
p2875
aS'http://tres.nju.edu.cn/Search/Resbrowse.aspx?restype=04'
p2876
aS'http://ces.nju.edu.cn'
p2877
aS'http://jw.nju.edu.cn/ContentList.aspx?FType=WZSY&MType=PX-WZSY-BKJXGK&res_type=introduction'
p2878
aS'http://tuanwei.nju.edu.cn/xstt/xsh'
p2879
aS'http://hwxy.nju.edu.cn'
p2880
aS'http://www.nju.org.cn'
p2881
aS'http://bbs.nju.edu.cn/bbsdoc?board=V_Suggestions'
p2882
aS'http://cssci.nju.edu.cn/login_u.html'
p2883
aS'http://hwxy.nju.edu.cn/cn'
p2884
atRp2885
sg37
g47
((lp2886
S'http://dawww.nju.edu.cn/pub/?fid=85&fpub=1&id=24&showbtn=0&showtitle=1'
p2887
aS'http://lib.nju.edu.cn'
p2888
aS'http://dawww.nju.edu.cn/pub/?fid=102&fpub=1&id=24&showbtn=0&showtitle=1'
p2889
aS'http://dawww.nju.edu.cn/pub/?fid=83&fpub=1&id=24&showbtn=0&showtitle=1'
p2890
aS'http://dawww.nju.edu.cn/pub/?fid=103&fpub=1&id=24&showbtn=0&showtitle=1'
p2891
aS'http://grawww.nju.edu.cn/html/zs/bsyjszs/1.html'
p2892
aS'http://tree.nju.edu.cn'
p2893
aS'http://xiaoban.nju.edu.cn/html/gltz/1.html'
p2894
aS'http://dawww.nju.edu.cn/pub/?fid=68&fpub=1&id=24&showbtn=0&showtitle=1'
p2895
aS'http://dawww.nju.edu.cn/pub/?fid=70&fpub=1&id=24&showbtn=0&showtitle=1'
p2896
aS'http://job.nju.edu.cn'
p2897
aS'http://www.jlxy.nju.edu.cn'
p2898
aS'http://tuanwei.nju.edu.cn/xstt/yjsh'
p2899
aS'http://dawww.nju.edu.cn/pub/?fid=104&fpub=1&id=24&showbtn=0&showtitle=1'
p2900
aS'http://jw.nju.edu.cn/JiaoGai/YanJiuDongTai.asp'
p2901
aS'http://cet.nju.edu.cn:155'
p2902
aS'http://dawww.nju.edu.cn/pub/?fid=101&fpub=1&id=24&showbtn=0&showtitle=1'
p2903
aS'http://dawww.nju.edu.cn/pub/?fid=80&fpub=1&id=24&showbtn=0&showtitle=1'
p2904
aS'http://dawww.nju.edu.cn/pub/?fid=72&fpub=1&id=24&showbtn=0&showtitle=1'
p2905
aS'http://tuanwei.nju.edu.cn'
p2906
aS'http://dawww.nju.edu.cn/pub/?fid=82&fpub=1&id=24&showbtn=0&showtitle=1'
p2907
aS'http://dawww.nju.edu.cn/pub/?fid=98&fpub=1&id=24&showbtn=0&showtitle=1'
p2908
aS'http://dawww.nju.edu.cn/pub/?fid=100&fpub=1&id=24&showbtn=0&showtitle=1'
p2909
aS'http://dawww.nju.edu.cn/pub/?fid=81&fpub=1&id=24&showbtn=0&showtitle=1'
p2910
aS'http://dawww.nju.edu.cn/pub/?fid=94&fpub=1&id=24&showbtn=0&showtitle=1'
p2911
aS'http://rczp.nju.edu.cn'
p2912
aS'http://rczp.nju.edu.cn/urp-portal/portal/group/Recruit'
p2913
aS'http://xiaobao.nju.edu.cn'
p2914
aS'http://gh.nju.edu.cn'
p2915
aS'http://dawww.nju.edu.cn/pub/?fid=88&fpub=1&id=24&showbtn=0&showtitle=1'
p2916
aS'http://news.nju.edu.cn'
p2917
aS'http://grawww.nju.edu.cn/html/zs/ssyjszs/1.html'
p2918
aS'http://grawww.nju.edu.cn/html/py/tz/1.html'
p2919
aS'http://www.njude.com.cn'
p2920
aS'http://dawww.nju.edu.cn/pub/?fid=78&fpub=1&id=24&showbtn=0&showtitle=1'
p2921
aS'http://dawww.nju.edu.cn/pub/?fid=76&fpub=1&id=24&showbtn=0&showtitle=1'
p2922
aS'http://postdoctors.nju.edu.cn'
p2923
aS'http://museum.nju.edu.cn'
p2924
aS'http://dawww.nju.edu.cn/pub/?fid=105&fpub=1&id=24&showbtn=0&showtitle=1'
p2925
aS'http://bkzs.nju.edu.cn'
p2926
aS'http://nic.nju.edu.cn'
p2927
aS'http://eqpt.nju.edu.cn'
p2928
aS'http://dawww.nju.edu.cn/pub/?fid=90&fpub=1&id=24&showbtn=0&showtitle=1'
p2929
aS'http://xxgk.nju.edu.cn'
p2930
aS'http://qinggongxiao.nju.edu.cn'
p2931
aS'http://dawww.nju.edu.cn/pub/?fid=77&fpub=1&id=24&showbtn=0&showtitle=1'
p2932
aS'http://www.miibeian.gov.cn'
p2933
aS'http://dawww.nju.edu.cn/pub/?fid=73&fpub=1&id=24&showbtn=0&showtitle=1'
p2934
aS'http://tuanwei.nju.edu.cn/component/tags/tag/24'
p2935
aS'http://dawww.nju.edu.cn/pub/?fid=75&fpub=1&id=24&showbtn=0&showtitle=1'
p2936
aS'http://dawww.nju.edu.cn'
p2937
aS'http://dawww.nju.edu.cn/pub/?fid=95&fpub=1&id=24&showbtn=0&showtitle=1'
p2938
aS'http://dawww.nju.edu.cn/pub/?fid=71&fpub=1&id=24&showbtn=0&showtitle=1'
p2939
aS'http://tres.nju.edu.cn/Search/Resbrowse.aspx?restype=04'
p2940
aS'http://dawww.nju.edu.cn/pub/?fid=96&fpub=1&id=24&showbtn=0&showtitle=1'
p2941
aS'http://ces.nju.edu.cn'
p2942
aS'http://jw.nju.edu.cn/ContentList.aspx?FType=WZSY&MType=PX-WZSY-BKJXGK&res_type=introduction'
p2943
aS'http://dawww.nju.edu.cn/pub/?fid=144&fpub=1&id=24&showbtn=0&showtitle=1'
p2944
aS'http://dawww.nju.edu.cn/pub/?fid=89&fpub=1&id=24&showbtn=0&showtitle=1'
p2945
aS'http://dawww.nju.edu.cn/pub/?fid=79&fpub=1&id=24&showbtn=0&showtitle=1'
p2946
aS'http://mail.nju.edu.cn'
p2947
aS'http://tuanwei.nju.edu.cn/xstt/xsh'
p2948
aS'http://dawww.nju.edu.cn/pub/?fid=69&fpub=1&id=24&showbtn=0&showtitle=1'
p2949
aS'http://dawww.nju.edu.cn/pub/?fid=92&fpub=1&id=24&showbtn=0&showtitle=1'
p2950
aS'http://dawww.nju.edu.cn/pub/?fid=87&fpub=1&id=24&showbtn=0&showtitle=1'
p2951
aS'http://dawww.nju.edu.cn/pub/?fid=99&fpub=1&id=24&showbtn=0&showtitle=1'
p2952
aS'http://dawww.nju.edu.cn/pub/search/pub_default.asp?fid=67&fmt=&fopen=&fpub=0&id=24&showbtn=0&showtitle=2'
p2953
aS'http://bbs.nju.edu.cn'
p2954
aS'http://hwxy.nju.edu.cn'
p2955
aS'http://dawww.nju.edu.cn/pub/?fid=91&fpub=1&id=24&showbtn=0&showtitle=1'
p2956
aS'http://www.nju.org.cn'
p2957
aS'http://bbs.nju.edu.cn/bbsdoc?board=V_Suggestions'
p2958
aS'http://dawww.nju.edu.cn/pub/?fid=84&fpub=1&id=24&showbtn=0&showtitle=1'
p2959
aS'http://dawww.nju.edu.cn/pub/?fid=93&fpub=1&id=24&showbtn=0&showtitle=1'
p2960
aS'http://dawww.nju.edu.cn/pub/?fid=86&fpub=1&id=24&showbtn=0&showtitle=1'
p2961
aS'http://cssci.nju.edu.cn/login_u.html'
p2962
aS'http://dawww.nju.edu.cn/pub/?fid=74&fpub=1&id=24&showbtn=0&showtitle=1'
p2963
aS'http://dawww.nju.edu.cn/pub/?fid=97&fpub=1&id=24&showbtn=0&showtitle=1'
p2964
aS'http://hwxy.nju.edu.cn/cn'
p2965
atRp2966
sg38
g47
((lp2967
S'http://lib.nju.edu.cn'
p2968
aS'http://grawww.nju.edu.cn/html/zs/bsyjszs/1.html'
p2969
aS'http://xiaoban.nju.edu.cn/html/gltz/1.html'
p2970
aS'http://job.nju.edu.cn'
p2971
aS'http://www.jlxy.nju.edu.cn'
p2972
aS'http://tuanwei.nju.edu.cn/xstt/yjsh'
p2973
aS'http://jw.nju.edu.cn/JiaoGai/YanJiuDongTai.asp'
p2974
aS'http://cet.nju.edu.cn:155'
p2975
aS'http://mail.nju.edu.cn'
p2976
aS'http://bbs.nju.edu.cn'
p2977
aS'http://tuanwei.nju.edu.cn'
p2978
aS'http://rczp.nju.edu.cn'
p2979
aS'http://tree.nju.edu.cn'
p2980
aS'http://rczp.nju.edu.cn/urp-portal/portal/group/Recruit'
p2981
aS'http://xiaobao.nju.edu.cn'
p2982
aS'http://gh.nju.edu.cn'
p2983
aS'http://news.nju.edu.cn'
p2984
aS'http://grawww.nju.edu.cn/html/zs/ssyjszs/1.html'
p2985
aS'http://grawww.nju.edu.cn/html/py/tz/1.html'
p2986
aS'http://www.njude.com.cn'
p2987
aS'http://postdoctors.nju.edu.cn'
p2988
aS'http://museum.nju.edu.cn'
p2989
aS'http://bkzs.nju.edu.cn'
p2990
aS'http://nic.nju.edu.cn'
p2991
aS'http://eqpt.nju.edu.cn'
p2992
aS'http://xxgk.nju.edu.cn'
p2993
aS'http://qinggongxiao.nju.edu.cn'
p2994
aS'http://www.miibeian.gov.cn'
p2995
aS'http://tuanwei.nju.edu.cn/component/tags/tag/24'
p2996
aS'http://dawww.nju.edu.cn'
p2997
aS'http://tres.nju.edu.cn/Search/Resbrowse.aspx?restype=04'
p2998
aS'http://ces.nju.edu.cn'
p2999
aS'http://jw.nju.edu.cn/ContentList.aspx?FType=WZSY&MType=PX-WZSY-BKJXGK&res_type=introduction'
p3000
aS'http://tuanwei.nju.edu.cn/xstt/xsh'
p3001
aS'http://hwxy.nju.edu.cn'
p3002
aS'http://www.nju.org.cn'
p3003
aS'http://bbs.nju.edu.cn/bbsdoc?board=V_Suggestions'
p3004
aS'http://cssci.nju.edu.cn/login_u.html'
p3005
aS'http://hwxy.nju.edu.cn/cn'
p3006
atRp3007
sg39
g47
((lp3008
S'http://lib.nju.edu.cn'
p3009
aS'http://grawww.nju.edu.cn/html/zs/bsyjszs/1.html'
p3010
aS'http://xiaoban.nju.edu.cn/html/gltz/1.html'
p3011
aS'http://job.nju.edu.cn'
p3012
aS'http://www.jlxy.nju.edu.cn'
p3013
aS'http://tuanwei.nju.edu.cn/xstt/yjsh'
p3014
aS'http://jw.nju.edu.cn/JiaoGai/YanJiuDongTai.asp'
p3015
aS'http://cet.nju.edu.cn:155'
p3016
aS'http://mail.nju.edu.cn'
p3017
aS'http://bbs.nju.edu.cn'
p3018
aS'http://tuanwei.nju.edu.cn'
p3019
aS'http://rczp.nju.edu.cn'
p3020
aS'http://tree.nju.edu.cn'
p3021
aS'http://rczp.nju.edu.cn/urp-portal/portal/group/Recruit'
p3022
aS'http://xiaobao.nju.edu.cn'
p3023
aS'http://gh.nju.edu.cn'
p3024
aS'http://news.nju.edu.cn'
p3025
aS'http://grawww.nju.edu.cn/html/zs/ssyjszs/1.html'
p3026
aS'http://grawww.nju.edu.cn/html/py/tz/1.html'
p3027
aS'http://www.njude.com.cn'
p3028
aS'http://postdoctors.nju.edu.cn'
p3029
aS'http://museum.nju.edu.cn'
p3030
aS'http://bkzs.nju.edu.cn'
p3031
aS'http://nic.nju.edu.cn'
p3032
aS'http://eqpt.nju.edu.cn'
p3033
aS'http://xxgk.nju.edu.cn'
p3034
aS'http://qinggongxiao.nju.edu.cn'
p3035
aS'http://www.miibeian.gov.cn'
p3036
aS'http://tuanwei.nju.edu.cn/component/tags/tag/24'
p3037
aS'http://dawww.nju.edu.cn'
p3038
aS'http://tres.nju.edu.cn/Search/Resbrowse.aspx?restype=04'
p3039
aS'http://ces.nju.edu.cn'
p3040
aS'http://jw.nju.edu.cn/ContentList.aspx?FType=WZSY&MType=PX-WZSY-BKJXGK&res_type=introduction'
p3041
aS'http://tuanwei.nju.edu.cn/xstt/xsh'
p3042
aS'http://hwxy.nju.edu.cn'
p3043
aS'http://www.nju.org.cn'
p3044
aS'http://bbs.nju.edu.cn/bbsdoc?board=V_Suggestions'
p3045
aS'http://cssci.nju.edu.cn/login_u.html'
p3046
aS'http://hwxy.nju.edu.cn/cn'
p3047
atRp3048
sg40
g47
((lp3049
S'http://lib.nju.edu.cn'
p3050
aS'http://grawww.nju.edu.cn/html/zs/bsyjszs/1.html'
p3051
aS'http://xiaoban.nju.edu.cn/html/gltz/1.html'
p3052
aS'http://job.nju.edu.cn'
p3053
aS'http://www.jlxy.nju.edu.cn'
p3054
aS'http://tuanwei.nju.edu.cn/xstt/yjsh'
p3055
aS'http://jw.nju.edu.cn/JiaoGai/YanJiuDongTai.asp'
p3056
aS'http://cet.nju.edu.cn:155'
p3057
aS'http://mail.nju.edu.cn'
p3058
aS'http://bbs.nju.edu.cn'
p3059
aS'http://tuanwei.nju.edu.cn'
p3060
aS'http://rczp.nju.edu.cn'
p3061
aS'http://tree.nju.edu.cn'
p3062
aS'http://rczp.nju.edu.cn/urp-portal/portal/group/Recruit'
p3063
aS'http://xiaobao.nju.edu.cn'
p3064
aS'http://gh.nju.edu.cn'
p3065
aS'http://news.nju.edu.cn'
p3066
aS'http://grawww.nju.edu.cn/html/zs/ssyjszs/1.html'
p3067
aS'http://grawww.nju.edu.cn/html/py/tz/1.html'
p3068
aS'http://www.njude.com.cn'
p3069
aS'http://postdoctors.nju.edu.cn'
p3070
aS'http://museum.nju.edu.cn'
p3071
aS'http://bkzs.nju.edu.cn'
p3072
aS'http://nic.nju.edu.cn'
p3073
aS'http://eqpt.nju.edu.cn'
p3074
aS'http://xxgk.nju.edu.cn'
p3075
aS'http://qinggongxiao.nju.edu.cn'
p3076
aS'http://www.miibeian.gov.cn'
p3077
aS'http://tuanwei.nju.edu.cn/component/tags/tag/24'
p3078
aS'http://dawww.nju.edu.cn'
p3079
aS'http://tres.nju.edu.cn/Search/Resbrowse.aspx?restype=04'
p3080
aS'http://ces.nju.edu.cn'
p3081
aS'http://jw.nju.edu.cn/ContentList.aspx?FType=WZSY&MType=PX-WZSY-BKJXGK&res_type=introduction'
p3082
aS'http://tuanwei.nju.edu.cn/xstt/xsh'
p3083
aS'http://hwxy.nju.edu.cn'
p3084
aS'http://www.nju.org.cn'
p3085
aS'http://bbs.nju.edu.cn/bbsdoc?board=V_Suggestions'
p3086
aS'http://cssci.nju.edu.cn/login_u.html'
p3087
aS'http://hwxy.nju.edu.cn/cn'
p3088
atRp3089
sg41
g47
((lp3090
S'http://lib.nju.edu.cn'
p3091
aS'http://grawww.nju.edu.cn/html/zs/bsyjszs/1.html'
p3092
aS'http://xiaoban.nju.edu.cn/html/gltz/1.html'
p3093
aS'http://job.nju.edu.cn'
p3094
aS'http://www.jlxy.nju.edu.cn'
p3095
aS'http://tuanwei.nju.edu.cn/xstt/yjsh'
p3096
aS'http://jw.nju.edu.cn/JiaoGai/YanJiuDongTai.asp'
p3097
aS'http://cet.nju.edu.cn:155'
p3098
aS'http://mail.nju.edu.cn'
p3099
aS'http://bbs.nju.edu.cn'
p3100
aS'http://tuanwei.nju.edu.cn'
p3101
aS'http://rczp.nju.edu.cn'
p3102
aS'http://tree.nju.edu.cn'
p3103
aS'http://rczp.nju.edu.cn/urp-portal/portal/group/Recruit'
p3104
aS'http://xiaobao.nju.edu.cn'
p3105
aS'http://gh.nju.edu.cn'
p3106
aS'http://news.nju.edu.cn'
p3107
aS'http://grawww.nju.edu.cn/html/zs/ssyjszs/1.html'
p3108
aS'http://grawww.nju.edu.cn/html/py/tz/1.html'
p3109
aS'http://www.njude.com.cn'
p3110
aS'http://postdoctors.nju.edu.cn'
p3111
aS'http://museum.nju.edu.cn'
p3112
aS'http://bkzs.nju.edu.cn'
p3113
aS'http://nic.nju.edu.cn'
p3114
aS'http://eqpt.nju.edu.cn'
p3115
aS'http://xxgk.nju.edu.cn'
p3116
aS'http://qinggongxiao.nju.edu.cn'
p3117
aS'http://www.miibeian.gov.cn'
p3118
aS'http://tuanwei.nju.edu.cn/component/tags/tag/24'
p3119
aS'http://dawww.nju.edu.cn'
p3120
aS'http://tres.nju.edu.cn/Search/Resbrowse.aspx?restype=04'
p3121
aS'http://ces.nju.edu.cn'
p3122
aS'http://jw.nju.edu.cn/ContentList.aspx?FType=WZSY&MType=PX-WZSY-BKJXGK&res_type=introduction'
p3123
aS'http://tuanwei.nju.edu.cn/xstt/xsh'
p3124
aS'http://hwxy.nju.edu.cn'
p3125
aS'http://www.nju.org.cn'
p3126
aS'http://bbs.nju.edu.cn/bbsdoc?board=V_Suggestions'
p3127
aS'http://cssci.nju.edu.cn/login_u.html'
p3128
aS'http://hwxy.nju.edu.cn/cn'
p3129
atRp3130
sg42
g47
((lp3131
S'http://lib.nju.edu.cn'
p3132
aS'http://grawww.nju.edu.cn/html/zs/bsyjszs/1.html'
p3133
aS'http://xiaoban.nju.edu.cn/html/gltz/1.html'
p3134
aS'http://job.nju.edu.cn'
p3135
aS'http://www.jlxy.nju.edu.cn'
p3136
aS'http://tuanwei.nju.edu.cn/xstt/yjsh'
p3137
aS'http://jw.nju.edu.cn/JiaoGai/YanJiuDongTai.asp'
p3138
aS'http://cet.nju.edu.cn:155'
p3139
aS'http://mail.nju.edu.cn'
p3140
aS'http://bbs.nju.edu.cn'
p3141
aS'http://tuanwei.nju.edu.cn'
p3142
aS'http://rczp.nju.edu.cn'
p3143
aS'http://tree.nju.edu.cn'
p3144
aS'http://rczp.nju.edu.cn/urp-portal/portal/group/Recruit'
p3145
aS'http://xiaobao.nju.edu.cn'
p3146
aS'http://gh.nju.edu.cn'
p3147
aS'http://news.nju.edu.cn'
p3148
aS'http://grawww.nju.edu.cn/html/zs/ssyjszs/1.html'
p3149
aS'http://grawww.nju.edu.cn/html/py/tz/1.html'
p3150
aS'http://www.njude.com.cn'
p3151
aS'http://postdoctors.nju.edu.cn'
p3152
aS'http://museum.nju.edu.cn'
p3153
aS'http://bkzs.nju.edu.cn'
p3154
aS'http://nic.nju.edu.cn'
p3155
aS'http://eqpt.nju.edu.cn'
p3156
aS'http://xxgk.nju.edu.cn'
p3157
aS'http://qinggongxiao.nju.edu.cn'
p3158
aS'http://www.miibeian.gov.cn'
p3159
aS'http://www.swliuxue.com/school-4803.html'
p3160
aS'http://tuanwei.nju.edu.cn/component/tags/tag/24'
p3161
aS'http://dawww.nju.edu.cn'
p3162
aS'http://tres.nju.edu.cn/Search/Resbrowse.aspx?restype=04'
p3163
aS'http://ces.nju.edu.cn'
p3164
aS'http://jw.nju.edu.cn/ContentList.aspx?FType=WZSY&MType=PX-WZSY-BKJXGK&res_type=introduction'
p3165
aS'http://tuanwei.nju.edu.cn/xstt/xsh'
p3166
aS'http://hwxy.nju.edu.cn'
p3167
aS'http://www.nju.org.cn'
p3168
aS'http://bbs.nju.edu.cn/bbsdoc?board=V_Suggestions'
p3169
aS'http://cssci.nju.edu.cn/login_u.html'
p3170
aS'http://hwxy.nju.edu.cn/cn'
p3171
atRp3172
sS'http://www.nju.edu.cn/english'
p3173
g47
((lp3174
S'http://www.aearu.org'
p3175
atRp3176
sg44
g47
((lp3177
S'http://lib.nju.edu.cn'
p3178
aS'http://grawww.nju.edu.cn/html/zs/bsyjszs/1.html'
p3179
aS'http://xiaoban.nju.edu.cn/html/gltz/1.html'
p3180
aS'http://job.nju.edu.cn'
p3181
aS'http://www.jlxy.nju.edu.cn'
p3182
aS'http://tuanwei.nju.edu.cn/xstt/yjsh'
p3183
aS'http://jw.nju.edu.cn/JiaoGai/YanJiuDongTai.asp'
p3184
aS'http://cet.nju.edu.cn:155'
p3185
aS'http://mail.nju.edu.cn'
p3186
aS'http://bbs.nju.edu.cn'
p3187
aS'http://tuanwei.nju.edu.cn'
p3188
aS'http://rczp.nju.edu.cn'
p3189
aS'http://tree.nju.edu.cn'
p3190
aS'http://rczp.nju.edu.cn/urp-portal/portal/group/Recruit'
p3191
aS'http://xiaobao.nju.edu.cn'
p3192
aS'http://gh.nju.edu.cn'
p3193
aS'http://news.nju.edu.cn'
p3194
aS'http://grawww.nju.edu.cn/html/zs/ssyjszs/1.html'
p3195
aS'http://grawww.nju.edu.cn/html/py/tz/1.html'
p3196
aS'http://www.njude.com.cn'
p3197
aS'http://postdoctors.nju.edu.cn'
p3198
aS'http://museum.nju.edu.cn'
p3199
aS'http://bkzs.nju.edu.cn'
p3200
aS'http://nic.nju.edu.cn'
p3201
aS'http://eqpt.nju.edu.cn'
p3202
aS'http://xxgk.nju.edu.cn'
p3203
aS'http://qinggongxiao.nju.edu.cn'
p3204
aS'http://www.miibeian.gov.cn'
p3205
aS'http://tuanwei.nju.edu.cn/component/tags/tag/24'
p3206
aS'http://dawww.nju.edu.cn'
p3207
aS'http://tres.nju.edu.cn/Search/Resbrowse.aspx?restype=04'
p3208
aS'http://ces.nju.edu.cn'
p3209
aS'http://jw.nju.edu.cn/ContentList.aspx?FType=WZSY&MType=PX-WZSY-BKJXGK&res_type=introduction'
p3210
aS'http://tuanwei.nju.edu.cn/xstt/xsh'
p3211
aS'http://hwxy.nju.edu.cn'
p3212
aS'http://www.nju.org.cn'
p3213
aS'http://bbs.nju.edu.cn/bbsdoc?board=V_Suggestions'
p3214
aS'http://cssci.nju.edu.cn/login_u.html'
p3215
aS'http://hwxy.nju.edu.cn/cn'
p3216
atRp3217
s(dp3218
g14
g1416
sg8
g1418
sg40
g1484
sg10
g1422
sg11
g1424
sg12
g1426
sg13
g1428
sg2
g1432
sg15
g1434
sg30
g1464
sg42
g1488
sg18
g1440
sg19
g1442
sg20
g1444
sg21
g1446
sg22
g1448
sg23
g1450
sg1431
g1490
sg24
g1452
sg25
g1454
sg26
g1456
sg27
g1458
sg9
g1420
sg29
g1462
sg16
g1436
sg31
g1466
sg32
g1468
sg33
g1470
sg34
g1472
sg35
g1474
sg28
g1460
sg37
g1478
sg39
g1482
sg36
g1476
sg41
g1486
sg17
g1438
sg38
g1480
sg44
g1492
s(dp3219
g7
g1494
sg8
(dp3220
g89
I1
sg90
I1
sg92
I1
sg93
I1
sg94
I1
sg95
I1
sg96
I1
sg110
I1
sg98
I1
sg99
I1
sg100
I1
sg101
I1
sg102
I1
sg103
I1
sg122
I1
sg104
I1
sg105
I1
sg106
I1
sg107
I1
sg108
I1
sg109
I1
sg97
I1
sg111
I1
sg112
I1
sg113
I1
sg114
I1
sg115
I1
sg116
I1
sg118
I1
sg119
I1
sg120
I1
sg121
I1
sg117
I1
ssg40
(dp3221
g1265
I1
sg1266
I1
sg1268
I1
sg1269
I1
sg1270
I1
sg1271
I1
sg1272
I1
sg1286
I1
sg1274
I1
sg1275
I1
sg1276
I1
sg1277
I1
sg1278
I1
sg1279
I1
sg1298
I1
sg1280
I1
sg1281
I1
sg1282
I1
sg1283
I1
sg1284
I1
sg1285
I1
sg1273
I1
sg1287
I1
sg1288
I1
sg1289
I1
sg1290
I1
sg1291
I1
sg1292
I1
sg1294
I1
sg1295
I1
sg1296
I1
sg1297
I1
sg1293
I1
ssg10
(dp3222
g163
I1
sg164
I1
sg166
I1
sg167
I1
sg168
I1
sg169
I1
sg170
I1
sg184
I1
sg172
I1
sg173
I1
sg174
I1
sg175
I1
sg176
I1
sg177
I1
sg196
I1
sg178
I1
sg179
I1
sg180
I1
sg181
I1
sg182
I1
sg183
I1
sg171
I1
sg185
I1
sg186
I1
sg187
I1
sg188
I1
sg189
I1
sg190
I1
sg192
I1
sg193
I1
sg194
I1
sg195
I1
sg191
I1
ssg11
(dp3223
g199
I1
sg200
I1
sg202
I1
sg203
I1
sg204
I1
sg205
I1
sg206
I1
sg220
I1
sg208
I1
sg209
I1
sg210
I1
sg211
I1
sg212
I1
sg213
I1
sg232
I1
sg214
I1
sg215
I1
sg216
I1
sg217
I1
sg218
I1
sg219
I1
sg207
I1
sg221
I1
sg222
I1
sg223
I1
sg224
I1
sg225
I1
sg226
I1
sg228
I1
sg229
I1
sg230
I1
sg231
I1
sg227
I1
ssg12
(dp3224
g235
I1
sg236
I1
sg238
I1
sg239
I1
sg240
I1
sg241
I1
sg242
I1
sg257
I1
sg244
I1
sg245
I1
sg246
I1
sg248
I1
sg249
I1
sg250
I1
sg269
I1
sg251
I1
sg252
I1
sg253
I1
sg254
I1
sg255
I1
sg256
I1
sg243
I1
sg258
I1
sg259
I1
sg260
I1
sg261
I1
sg262
I1
sg263
I1
sg265
I1
sg266
I1
sg267
I1
sg268
I1
sg264
I1
ssg13
(dp3225
g272
I1
sg273
I1
sg306
I1
sg276
I1
sg277
I1
sg278
I1
sg279
I1
sg280
I1
sg281
I1
sg296
I1
sg309
I1
sg284
I1
sg285
I1
sg286
I1
sg287
I1
sg288
I1
sg289
I1
sg310
I1
sg290
I1
sg291
I1
sg292
I1
sg293
I1
sg274
I1
sg295
I1
sg282
I1
sg297
I1
sg298
I1
sg299
I1
sg300
I1
sg301
I1
sg294
I1
sg303
I1
sg305
I1
sg302
I1
sg307
I1
sg308
I1
sg283
I1
sg304
I1
ssg14
(dp3226
g313
I1
sg314
I1
sg316
I1
sg317
I1
sg318
I1
sg319
I1
sg320
I1
sg334
I1
sg322
I1
sg323
I1
sg324
I1
sg325
I1
sg326
I1
sg327
I1
sg347
I1
sg328
I1
sg329
I1
sg330
I1
sg331
I1
sg332
I1
sg333
I1
sg321
I1
sg335
I1
sg337
I1
sg338
I1
sg339
I1
sg340
I1
sg341
I1
sg343
I1
sg344
I1
sg345
I1
sg346
I1
sg342
I1
ssg15
(dp3227
g350
I1
sg351
I1
sg353
I1
sg354
I1
sg355
I1
sg356
I1
sg357
I1
sg378
I1
sg373
I1
sg360
I1
sg362
I1
sg363
I1
sg364
I1
sg365
I1
sg366
I1
sg385
I1
sg367
I1
sg368
I1
sg369
I1
sg370
I1
sg371
I1
sg372
I1
sg359
I1
sg374
I1
sg375
I1
sg376
I1
sg377
I1
sg358
I1
sg379
I1
sg381
I1
sg382
I1
sg383
I1
sg384
I1
sg380
I1
ssg30
(dp3228
g902
I1
sg903
I1
sg905
I1
sg906
I1
sg907
I1
sg908
I1
sg909
I1
sg923
I1
sg911
I1
sg912
I1
sg913
I1
sg914
I1
sg915
I1
sg916
I1
sg935
I1
sg917
I1
sg918
I1
sg919
I1
sg920
I1
sg921
I1
sg922
I1
sg910
I1
sg924
I1
sg925
I1
sg926
I1
sg927
I1
sg928
I1
sg929
I1
sg931
I1
sg932
I1
sg933
I1
sg934
I1
sg930
I1
ssg42
(dp3229
g1337
I1
sg1338
I1
sg1340
I1
sg1341
I1
sg1342
I1
sg1343
I1
sg1344
I1
sg1358
I1
sg1346
I1
sg1347
I1
sg1348
I1
sg1349
I1
sg1350
I1
sg1351
I1
sg1370
I1
sg1352
I1
sg1353
I1
sg1354
I1
sg1355
I1
sg1356
I1
sg1357
I1
sg1345
I1
sg1359
I1
sg1360
I1
sg1361
I1
sg1362
I1
sg1363
I1
sg1364
I1
sg1366
I1
sg1367
I1
sg1368
I1
sg1369
I1
sg1365
I1
ssg18
(dp3230
g463
I1
sg464
I1
sg466
I1
sg467
I1
sg468
I1
sg469
I1
sg470
I1
sg485
I1
sg472
I1
sg473
I1
sg474
I1
sg476
I1
sg477
I1
sg478
I1
sg497
I1
sg479
I1
sg480
I1
sg481
I1
sg482
I1
sg483
I1
sg484
I1
sg471
I1
sg486
I1
sg487
I1
sg488
I1
sg489
I1
sg490
I1
sg491
I1
sg493
I1
sg494
I1
sg495
I1
sg496
I1
sg492
I1
ssg19
(dp3231
g500
I1
sg501
I1
sg503
I1
sg504
I1
sg505
I1
sg506
I1
sg507
I1
sg521
I1
sg509
I1
sg510
I1
sg511
I1
sg512
I1
sg513
I1
sg514
I1
sg533
I1
sg515
I1
sg516
I1
sg517
I1
sg518
I1
sg519
I1
sg520
I1
sg508
I1
sg522
I1
sg523
I1
sg524
I1
sg525
I1
sg526
I1
sg527
I1
sg529
I1
sg530
I1
sg531
I1
sg532
I1
sg528
I1
ssg20
(dp3232
g536
I1
sg537
I1
sg539
I1
sg540
I1
sg541
I1
sg542
I1
sg543
I1
sg557
I1
sg545
I1
sg546
I1
sg547
I1
sg548
I1
sg549
I1
sg550
I1
sg569
I1
sg551
I1
sg552
I1
sg553
I1
sg554
I1
sg555
I1
sg556
I1
sg544
I1
sg558
I1
sg559
I1
sg560
I1
sg561
I1
sg562
I1
sg563
I1
sg565
I1
sg566
I1
sg567
I1
sg568
I1
sg564
I1
ssg21
(dp3233
g572
I1
sg573
I1
sg575
I1
sg576
I1
sg577
I1
sg578
I1
sg579
I1
sg593
I1
sg581
I1
sg582
I1
sg583
I1
sg584
I1
sg585
I1
sg586
I1
sg605
I1
sg587
I1
sg588
I1
sg589
I1
sg590
I1
sg591
I1
sg592
I1
sg580
I1
sg594
I1
sg595
I1
sg596
I1
sg597
I1
sg598
I1
sg599
I1
sg601
I1
sg602
I1
sg603
I1
sg604
I1
sg600
I1
ssg22
(dp3234
g608
I1
sg609
I1
sg611
I1
sg612
I1
sg613
I1
sg614
I1
sg615
I1
sg629
I1
sg617
I1
sg618
I1
sg619
I1
sg620
I1
sg621
I1
sg622
I1
sg642
I1
sg623
I1
sg624
I1
sg625
I1
sg626
I1
sg627
I1
sg628
I1
sg616
I1
sg630
I1
sg632
I1
sg633
I1
sg634
I1
sg635
I1
sg636
I1
sg638
I1
sg639
I1
sg640
I1
sg641
I1
sg637
I1
ssg23
(dp3235
g645
I1
sg646
I1
sg648
I1
sg649
I1
sg650
I1
sg651
I1
sg652
I1
sg666
I1
sg654
I1
sg655
I1
sg656
I1
sg657
I1
sg658
I1
sg659
I1
sg678
I1
sg660
I1
sg661
I1
sg662
I1
sg663
I1
sg664
I1
sg665
I1
sg653
I1
sg667
I1
sg668
I1
sg669
I1
sg670
I1
sg671
I1
sg672
I1
sg674
I1
sg675
I1
sg676
I1
sg677
I1
sg673
I1
ssg43
(dp3236
g1374
I1
ssg24
(dp3237
g681
I1
sg682
I1
sg684
I1
sg685
I1
sg686
I1
sg687
I1
sg688
I1
sg702
I1
sg690
I1
sg691
I1
sg692
I1
sg693
I1
sg694
I1
sg695
I1
sg714
I1
sg696
I1
sg697
I1
sg698
I1
sg699
I1
sg700
I1
sg701
I1
sg689
I1
sg703
I1
sg704
I1
sg705
I1
sg706
I1
sg707
I1
sg708
I1
sg710
I1
sg711
I1
sg712
I1
sg713
I1
sg709
I1
ssg25
(dp3238
g717
I1
sg718
I1
sg720
I1
sg721
I1
sg722
I1
sg723
I1
sg724
I1
sg738
I1
sg726
I1
sg727
I1
sg728
I1
sg729
I1
sg730
I1
sg731
I1
sg750
I1
sg732
I1
sg733
I1
sg734
I1
sg735
I1
sg736
I1
sg737
I1
sg725
I1
sg739
I1
sg740
I1
sg741
I1
sg742
I1
sg743
I1
sg744
I1
sg746
I1
sg747
I1
sg748
I1
sg749
I1
sg745
I1
ssg26
(dp3239
g753
I1
sg754
I1
sg756
I1
sg757
I1
sg758
I1
sg759
I1
sg760
I1
sg775
I1
sg762
I1
sg763
I1
sg764
I1
sg766
I1
sg767
I1
sg768
I1
sg787
I1
sg769
I1
sg770
I1
sg771
I1
sg772
I1
sg773
I1
sg774
I1
sg761
I1
sg776
I1
sg777
I1
sg778
I1
sg779
I1
sg780
I1
sg781
I1
sg783
I1
sg784
I1
sg785
I1
sg786
I1
sg782
I1
ssg27
(dp3240
g790
I1
sg791
I1
sg793
I1
sg794
I1
sg795
I1
sg796
I1
sg797
I1
sg811
I1
sg799
I1
sg800
I1
sg801
I1
sg802
I1
sg803
I1
sg804
I1
sg823
I1
sg805
I1
sg806
I1
sg807
I1
sg808
I1
sg809
I1
sg810
I1
sg798
I1
sg812
I1
sg813
I1
sg814
I1
sg815
I1
sg816
I1
sg817
I1
sg819
I1
sg820
I1
sg821
I1
sg822
I1
sg818
I1
ssg9
(dp3241
g126
I1
sg138
I1
sg129
I1
sg130
I1
sg131
I1
sg139
I1
sg132
I1
sg133
I1
sg148
I1
sg135
I1
sg137
I1
sg125
I1
sg146
I1
sg140
I1
sg141
I1
sg160
I1
sg142
I1
sg143
I1
sg144
I1
sg145
I1
sg127
I1
sg147
I1
sg134
I1
sg149
I1
sg150
I1
sg151
I1
sg152
I1
sg153
I1
sg154
I1
sg156
I1
sg157
I1
sg158
I1
sg159
I1
sg155
I1
ssg29
(dp3242
g863
I1
sg864
I1
sg868
I1
sg869
I1
sg870
I1
sg871
I1
sg872
I1
sg887
I1
sg874
I1
sg875
I1
sg876
I1
sg877
I1
sg878
I1
sg879
I1
sg899
I1
sg880
I1
sg881
I1
sg882
I1
sg883
I1
sg884
I1
sg885
I1
sg873
I1
sg888
I1
sg889
I1
sg890
I1
sg891
I1
sg892
I1
sg893
I1
sg895
I1
sg896
I1
sg897
I1
sg898
I1
sg894
I1
ssg16
(dp3243
g388
I1
sg389
I1
sg391
I1
sg392
I1
sg393
I1
sg394
I1
sg395
I1
sg409
I1
sg397
I1
sg398
I1
sg399
I1
sg400
I1
sg401
I1
sg402
I1
sg421
I1
sg403
I1
sg404
I1
sg405
I1
sg406
I1
sg407
I1
sg408
I1
sg396
I1
sg410
I1
sg411
I1
sg412
I1
sg413
I1
sg414
I1
sg415
I1
sg417
I1
sg418
I1
sg419
I1
sg420
I1
sg416
I1
ssg31
(dp3244
g938
I1
sg939
I1
sg941
I1
sg942
I1
sg943
I1
sg944
I1
sg945
I1
sg959
I1
sg947
I1
sg948
I1
sg949
I1
sg950
I1
sg951
I1
sg952
I1
sg971
I1
sg953
I1
sg954
I1
sg955
I1
sg956
I1
sg957
I1
sg958
I1
sg946
I1
sg960
I1
sg961
I1
sg962
I1
sg963
I1
sg964
I1
sg965
I1
sg967
I1
sg968
I1
sg969
I1
sg970
I1
sg966
I1
ssg32
(dp3245
g974
I1
sg975
I1
sg977
I1
sg978
I1
sg979
I1
sg980
I1
sg981
I1
sg996
I1
sg983
I1
sg985
I1
sg986
I1
sg987
I1
sg988
I1
sg989
I1
sg1009
I1
sg990
I1
sg991
I1
sg992
I1
sg993
I1
sg994
I1
sg995
I1
sg982
I1
sg997
I1
sg998
I1
sg999
I1
sg1000
I1
sg1001
I1
sg1002
I1
sg1003
I1
sg1005
I1
sg1006
I1
sg1007
I1
sg1008
I1
sg1004
I1
ssg33
(dp3246
g1012
I1
sg1013
I1
sg1015
I1
sg1016
I1
sg1017
I1
sg1018
I1
sg1019
I1
sg1033
I1
sg1021
I1
sg1022
I1
sg1023
I1
sg1024
I1
sg1025
I1
sg1026
I1
sg1045
I1
sg1027
I1
sg1028
I1
sg1029
I1
sg1030
I1
sg1031
I1
sg1032
I1
sg1020
I1
sg1034
I1
sg1035
I1
sg1036
I1
sg1037
I1
sg1038
I1
sg1039
I1
sg1041
I1
sg1042
I1
sg1043
I1
sg1044
I1
sg1040
I1
ssg34
(dp3247
g1048
I1
sg1049
I1
sg1051
I1
sg1052
I1
sg1053
I1
sg1054
I1
sg1055
I1
sg1069
I1
sg1057
I1
sg1058
I1
sg1059
I1
sg1060
I1
sg1061
I1
sg1062
I1
sg1081
I1
sg1063
I1
sg1064
I1
sg1065
I1
sg1066
I1
sg1067
I1
sg1068
I1
sg1056
I1
sg1070
I1
sg1071
I1
sg1072
I1
sg1073
I1
sg1074
I1
sg1075
I1
sg1077
I1
sg1078
I1
sg1079
I1
sg1080
I1
sg1076
I1
ssg35
(dp3248
g1084
I1
sg1085
I1
sg1087
I1
sg1088
I1
sg1089
I1
sg1090
I1
sg1091
I1
sg1105
I1
sg1093
I1
sg1094
I1
sg1095
I1
sg1096
I1
sg1097
I1
sg1098
I1
sg1117
I1
sg1099
I1
sg1100
I1
sg1101
I1
sg1102
I1
sg1103
I1
sg1104
I1
sg1092
I1
sg1106
I1
sg1107
I1
sg1108
I1
sg1109
I1
sg1110
I1
sg1111
I1
sg1113
I1
sg1114
I1
sg1115
I1
sg1116
I1
sg1112
I1
ssg28
(dp3249
g826
I1
sg827
I1
sg829
I1
sg830
I1
sg831
I1
sg832
I1
sg833
I1
sg847
I1
sg835
I1
sg836
I1
sg837
I1
sg838
I1
sg839
I1
sg840
I1
sg860
I1
sg841
I1
sg842
I1
sg843
I1
sg844
I1
sg845
I1
sg846
I1
sg834
I1
sg848
I1
sg850
I1
sg851
I1
sg852
I1
sg853
I1
sg854
I1
sg856
I1
sg857
I1
sg858
I1
sg859
I1
sg855
I1
ssg37
(dp3250
g1157
I1
sg1158
I1
sg1159
I1
sg1160
I1
sg1161
I1
sg1162
I1
sg1163
I1
sg1177
I1
sg1165
I1
sg1166
I1
sg1167
I1
sg1168
I1
sg1169
I1
sg1170
I1
sg1189
I1
sg1171
I1
sg1172
I1
sg1173
I1
sg1174
I1
sg1175
I1
sg1176
I1
sg1164
I1
sg1178
I1
sg1179
I1
sg1180
I1
sg1181
I1
sg1182
I1
sg1183
I1
sg1185
I1
sg1186
I1
sg1187
I1
sg1188
I1
sg1184
I1
ssg39
(dp3251
g1228
I1
sg1229
I1
sg1231
I1
sg1232
I1
sg1233
I1
sg1234
I1
sg1235
I1
sg1250
I1
sg1237
I1
sg1238
I1
sg1239
I1
sg1241
I1
sg1242
I1
sg1243
I1
sg1262
I1
sg1244
I1
sg1245
I1
sg1246
I1
sg1247
I1
sg1248
I1
sg1249
I1
sg1236
I1
sg1251
I1
sg1252
I1
sg1253
I1
sg1254
I1
sg1255
I1
sg1256
I1
sg1258
I1
sg1259
I1
sg1260
I1
sg1261
I1
sg1257
I1
ssg36
(dp3252
g1120
I1
sg1121
I1
sg1123
I1
sg1124
I1
sg1125
I1
sg1126
I1
sg1127
I1
sg1142
I1
sg1129
I1
sg1130
I1
sg1131
I1
sg1133
I1
sg1134
I1
sg1135
I1
sg1154
I1
sg1136
I1
sg1137
I1
sg1138
I1
sg1139
I1
sg1140
I1
sg1141
I1
sg1128
I1
sg1143
I1
sg1144
I1
sg1145
I1
sg1146
I1
sg1147
I1
sg1148
I1
sg1150
I1
sg1151
I1
sg1152
I1
sg1153
I1
sg1149
I1
ssg41
(dp3253
g1301
I1
sg1302
I1
sg1304
I1
sg1305
I1
sg1306
I1
sg1307
I1
sg1308
I1
sg1322
I1
sg1310
I1
sg1311
I1
sg1312
I1
sg1313
I1
sg1314
I1
sg1315
I1
sg1334
I1
sg1316
I1
sg1317
I1
sg1318
I1
sg1319
I1
sg1320
I1
sg1321
I1
sg1309
I1
sg1323
I1
sg1324
I1
sg1325
I1
sg1326
I1
sg1327
I1
sg1328
I1
sg1330
I1
sg1331
I1
sg1332
I1
sg1333
I1
sg1329
I1
ssg17
(dp3254
g425
I1
sg426
I1
sg428
I1
sg429
I1
sg430
I1
sg431
I1
sg432
I1
sg437
I1
sg459
I1
sg434
I1
sg436
I1
sg438
I1
sg439
I1
sg440
I1
sg441
I1
sg460
I1
sg442
I1
sg443
I1
sg444
I1
sg445
I1
sg446
I1
sg447
I1
sg433
I1
sg449
I1
sg450
I1
sg451
I1
sg452
I1
sg453
I1
sg454
I1
sg456
I1
sg457
I1
sg458
I1
sg448
I1
sg455
I1
ssg38
(dp3255
g1192
I1
sg1193
I1
sg1195
I1
sg1196
I1
sg1197
I1
sg1198
I1
sg1199
I1
sg1214
I1
sg1201
I1
sg1202
I1
sg1203
I1
sg1204
I1
sg1205
I1
sg1206
I1
sg1208
I1
sg1209
I1
sg1210
I1
sg1211
I1
sg1212
I1
sg1213
I1
sg1200
I1
sg1215
I1
sg1216
I1
sg1217
I1
sg1218
I1
sg1219
I1
sg1220
I1
sg1225
I1
sg1221
I1
sg1222
I1
sg1223
I1
sg1224
I1
sg1207
I1
ssg44
(dp3256
g1377
I1
sg1378
I1
sg1380
I1
sg1381
I1
sg1382
I1
sg1383
I1
sg1384
I1
sg1399
I1
sg1386
I1
sg1388
I1
sg1389
I1
sg1390
I1
sg1391
I1
sg1392
I1
sg1412
I1
sg1393
I1
sg1394
I1
sg1395
I1
sg1396
I1
sg1397
I1
sg1398
I1
sg1385
I1
sg1400
I1
sg1401
I1
sg1402
I1
sg1403
I1
sg1404
I1
sg1405
I1
sg1407
I1
sg1408
I1
sg1409
I1
sg1410
I1
sg1411
I1
sg1406
I1
ss(dp3257
g7
g47
((lp3258
g1842
ag1814
ag1815
ag1851
ag1821
ag1863
ag1819
ag1838
ag1818
ag1822
ag1823
ag1824
ag1825
ag1826
ag1827
ag1828
ag1829
ag1831
ag1832
ag1846
ag1833
ag1834
ag1835
ag1836
ag1837
ag1839
ag1855
ag1840
ag1841
ag1813
ag1843
ag1844
ag1845
ag1830
ag1847
ag1848
ag1849
ag1850
ag1858
ag1816
ag1852
ag1853
ag1854
ag1817
ag1856
ag1857
ag1820
ag1859
ag1860
ag1862
ag1861
atRp3259
sg8
g47
((lp3260
g1582
ag1561
ag91
ag1563
ag1578
ag1565
ag1566
ag1567
ag1568
ag1569
ag1570
ag1571
ag1572
ag1573
ag1574
ag1575
ag1576
ag1577
ag1579
ag1593
ag1580
ag1581
ag1560
ag1583
ag1584
ag1585
ag1586
ag1587
ag1588
ag1589
ag1594
ag1590
ag1591
ag1592
ag1562
ag1564
ag1595
ag1596
ag1597
ag1598
atRp3261
sg40
g47
((lp3262
g3072
ag3051
ag1267
ag3053
ag3068
ag3055
ag3056
ag3057
ag3058
ag3059
ag3060
ag3061
ag3062
ag3063
ag3064
ag3065
ag3066
ag3067
ag3069
ag3083
ag3070
ag3071
ag3050
ag3073
ag3074
ag3075
ag3076
ag3077
ag3078
ag3079
ag3084
ag3080
ag3081
ag3082
ag3052
ag3054
ag3085
ag3086
ag3087
ag3088
atRp3263
sg10
g47
((lp3264
g1664
ag1643
ag165
ag1645
ag1660
ag1647
ag1648
ag1649
ag1650
ag1651
ag1652
ag1653
ag1654
ag1655
ag1656
ag1657
ag1658
ag1659
ag1661
ag1675
ag1662
ag1663
ag1642
ag1665
ag1666
ag1667
ag1668
ag1669
ag1670
ag1671
ag1676
ag1672
ag1673
ag1674
ag1644
ag1646
ag1677
ag1678
ag1679
ag1680
atRp3265
sg11
g47
((lp3266
g1708
ag1684
ag1685
ag1717
ag201
ag1688
ag1724
ag1690
ag1691
ag1692
ag1693
ag1694
ag1695
ag1696
ag1697
ag1712
ag1699
ag1700
ag1701
ag1704
ag1703
ag1705
ag1721
ag1706
ag1707
ag1683
ag1709
ag1710
ag1711
ag1698
ag1713
ag1714
ag1715
ag1702
ag1716
ag1686
ag1718
ag1719
ag1720
ag1687
ag1722
ag1723
ag1689
ag1725
ag1726
ag1727
ag1728
atRp3267
sg12
g47
((lp3268
g1753
ag1732
ag237
ag1734
ag1749
ag1736
ag1737
ag1738
ag1739
ag1740
ag1741
ag1742
ag1743
ag1744
ag1745
ag1746
ag247
ag1747
ag1748
ag1750
ag1764
ag1751
ag1752
ag1731
ag1754
ag1755
ag1756
ag1757
ag1758
ag1759
ag1760
ag1765
ag1761
ag1762
ag1763
ag1733
ag1735
ag1766
ag1767
ag1768
ag1769
atRp3269
sg13
g47
((lp3270
g1794
ag1773
ag275
ag1775
ag1790
ag1777
ag1778
ag1779
ag1780
ag1781
ag1782
ag1783
ag1784
ag1785
ag1786
ag1787
ag1788
ag1789
ag1791
ag1805
ag1792
ag1793
ag1772
ag1795
ag1796
ag1797
ag1798
ag1799
ag1800
ag1801
ag1806
ag1802
ag1803
ag1804
ag1774
ag1776
ag1807
ag1808
ag1809
ag1810
atRp3271
sg14
g47
((lp3272
g1533
ag1500
ag1502
ag1503
ag1534
ag1521
ag1506
ag1535
ag1545
ag1509
ag1510
ag1527
ag1512
ag315
ag1513
ag1514
ag1515
ag1516
ag1517
ag1518
ag1519
ag1520
ag1505
ag1522
ag1523
ag1524
ag1525
ag1526
ag1538
ag1529
ag1530
ag1549
ag1531
ag1532
ag1499
ag1504
ag1501
ag1536
ag1537
ag1528
ag1539
ag1540
ag1507
ag1542
ag1543
ag336
ag1552
ag1544
ag1541
ag1546
ag1547
ag1548
ag1508
ag1550
ag1551
ag1511
ag1553
ag1554
ag1555
ag1556
ag1557
atRp3273
sg15
g47
((lp3274
g1888
ag1867
ag352
ag1869
ag1884
ag1871
ag1872
ag1873
ag1874
ag1875
ag1876
ag1877
ag1878
ag361
ag1879
ag1880
ag1881
ag1882
ag1883
ag1885
ag1899
ag1886
ag1887
ag1866
ag1889
ag1890
ag1891
ag1892
ag1893
ag1894
ag1895
ag1900
ag1896
ag1897
ag1898
ag1868
ag1870
ag1901
ag1902
ag1903
ag1904
atRp3275
sg30
g47
((lp3276
g2611
ag2589
ag904
ag2591
ag2606
ag2593
ag2594
ag2595
ag2596
ag2597
ag2598
ag2599
ag2600
ag2601
ag2602
ag2603
ag2604
ag2605
ag2607
ag2608
ag2623
ag2609
ag2610
ag2588
ag2612
ag2613
ag2614
ag2615
ag2616
ag2617
ag2618
ag2619
ag2627
ag2620
ag2621
ag2622
ag2590
ag2624
ag2625
ag2626
ag2592
ag2628
ag2629
ag2630
ag2631
ag2632
atRp3277
sg42
g47
((lp3278
g3154
ag3133
ag1339
ag3135
ag3150
ag3137
ag3138
ag3139
ag3140
ag3141
ag3142
ag3143
ag3144
ag3145
ag3146
ag3147
ag3148
ag3149
ag3151
ag3166
ag3152
ag3153
ag3132
ag3155
ag3156
ag3157
ag3158
ag3159
ag3160
ag3161
ag3162
ag3167
ag3163
ag3164
ag3165
ag3134
ag3136
ag3168
ag3169
ag3170
ag3171
atRp3279
sg18
g47
((lp3280
g2011
ag1990
ag465
ag1992
ag2007
ag1994
ag1995
ag1996
ag1997
ag1998
ag1999
ag2000
ag2001
ag2002
ag2003
ag2004
ag475
ag2005
ag2006
ag2008
ag2022
ag2009
ag2010
ag1989
ag2012
ag2013
ag2014
ag2015
ag2016
ag2017
ag2018
ag2023
ag2019
ag2020
ag2021
ag1991
ag1993
ag2024
ag2025
ag2026
ag2027
atRp3281
sg19
g47
((lp3282
g2053
ag2031
ag502
ag2033
ag2049
ag2035
ag2036
ag2037
ag2038
ag2039
ag2040
ag2041
ag2042
ag2043
ag2044
ag2045
ag2046
ag2047
ag2048
ag2050
ag2065
ag2051
ag2052
ag2030
ag2054
ag2055
ag2056
ag2057
ag2058
ag2059
ag2060
ag2066
ag2061
ag2062
ag2063
ag2064
ag2032
ag2034
ag2067
ag2068
ag2069
ag2070
atRp3283
sg20
g47
((lp3284
g2095
ag2074
ag538
ag2076
ag2091
ag2078
ag2079
ag2080
ag2081
ag2082
ag2083
ag2084
ag2085
ag2086
ag2087
ag2088
ag2089
ag2090
ag2092
ag2106
ag2093
ag2094
ag2073
ag2096
ag2097
ag2098
ag2099
ag2100
ag2101
ag2102
ag2107
ag2103
ag2104
ag2105
ag2075
ag2077
ag2108
ag2109
ag2110
ag2111
atRp3285
sg21
g47
((lp3286
g2136
ag2115
ag574
ag2117
ag2132
ag2119
ag2120
ag2121
ag2122
ag2123
ag2124
ag2125
ag2126
ag2127
ag2128
ag2129
ag2130
ag2131
ag2133
ag2147
ag2134
ag2135
ag2114
ag2137
ag2138
ag2139
ag2140
ag2141
ag2142
ag2143
ag2148
ag2144
ag2145
ag2146
ag2116
ag2118
ag2149
ag2150
ag2151
ag2152
atRp3287
sg22
g47
((lp3288
g2155
ag2156
ag2157
ag2158
ag2159
ag2160
ag2161
ag2162
ag2163
ag2164
ag2165
ag2166
ag2167
ag2168
ag2169
ag2170
ag2171
ag2172
ag2173
ag2174
ag2175
ag2176
ag2177
ag2178
ag2179
ag610
ag2180
ag2181
ag2182
ag2183
ag2184
ag2185
ag2186
ag2187
ag2188
ag2189
ag2190
ag2191
ag2192
ag2193
ag2194
ag2195
ag2196
ag2197
ag2198
ag2199
ag2200
ag2201
ag2202
ag2203
ag2204
ag2205
ag2206
ag2207
ag2208
ag2209
ag2210
ag2211
ag2212
ag2213
ag2214
ag2215
ag2216
ag2217
ag2227
ag2219
ag2220
ag2221
ag2222
ag2223
ag2224
ag2225
ag2226
ag2218
ag2228
ag2229
ag2230
ag2231
ag2232
ag2233
ag631
ag2234
ag2235
ag2236
ag2237
ag2238
ag2239
ag2240
ag2241
ag2242
ag2243
ag2244
ag2245
ag2246
ag2247
ag2248
ag2249
ag2250
ag2251
ag2252
ag2253
ag2254
ag2255
ag2256
ag2257
ag2258
ag2259
ag2260
ag2261
ag2262
ag2263
ag2264
ag2265
ag2266
ag2267
ag2268
ag2269
atRp3289
sg23
g47
((lp3290
g2294
ag2273
ag647
ag2275
ag2290
ag2277
ag2278
ag2279
ag2280
ag2281
ag2282
ag2283
ag2284
ag2285
ag2286
ag2287
ag2288
ag2289
ag2291
ag2307
ag2292
ag2293
ag2272
ag2295
ag2296
ag2297
ag2298
ag2299
ag2300
ag2301
ag2302
ag2308
ag2303
ag2304
ag2305
ag2306
ag2274
ag2276
ag2309
ag2310
ag2311
ag2312
atRp3291
sg43
g47
((lp3292
g3175
atRp3293
sg24
g47
((lp3294
g2337
ag2316
ag683
ag2318
ag2333
ag2320
ag2321
ag2322
ag2323
ag2324
ag2325
ag2326
ag2327
ag2328
ag2329
ag2330
ag2331
ag2332
ag2334
ag2349
ag2335
ag2336
ag2315
ag2338
ag2339
ag2340
ag2341
ag2342
ag2343
ag2344
ag2345
ag2350
ag2346
ag2347
ag2348
ag2317
ag2319
ag2351
ag2352
ag2353
ag2354
atRp3295
sg25
g47
((lp3296
g2387
ag2358
ag2359
ag2360
ag2389
ag2363
ag2382
ag2365
ag2366
ag719
ag2367
ag2368
ag2369
ag2370
ag2371
ag2372
ag2373
ag2374
ag2375
ag2390
ag2402
ag2377
ag2378
ag2379
ag2380
ag2381
ag2383
ag2384
ag2401
ag2385
ag2386
ag2357
ag2388
ag2361
ag2376
ag2391
ag2392
ag2393
ag2394
ag2395
ag2396
ag2397
ag2398
ag2399
ag2400
ag2362
ag2364
ag2403
ag2404
ag2405
ag2406
ag2407
ag2408
atRp3297
sg26
g47
((lp3298
g2434
ag2412
ag755
ag2414
ag2430
ag2416
ag2417
ag2418
ag2419
ag2420
ag2421
ag2422
ag2423
ag2424
ag2425
ag2426
ag2427
ag765
ag2428
ag2429
ag2431
ag2445
ag2432
ag2433
ag2411
ag2435
ag2436
ag2437
ag2438
ag2439
ag2440
ag2441
ag2446
ag2442
ag2443
ag2444
ag2413
ag2415
ag2447
ag2448
ag2449
ag2450
atRp3299
sg27
g47
((lp3300
g2475
ag2454
ag792
ag2456
ag2471
ag2458
ag2459
ag2460
ag2461
ag2462
ag2463
ag2464
ag2465
ag2466
ag2467
ag2468
ag2469
ag2470
ag2472
ag2486
ag2473
ag2474
ag2453
ag2476
ag2477
ag2478
ag2479
ag2480
ag2481
ag2482
ag2487
ag2483
ag2484
ag2485
ag2455
ag2457
ag2488
ag2489
ag2490
ag2491
atRp3301
sg9
g47
((lp3302
g1623
ag1602
ag128
ag1604
ag1619
ag1606
ag1607
ag1608
ag1609
ag1610
ag1611
ag1612
ag1613
ag136
ag1614
ag1615
ag1616
ag1617
ag1618
ag1620
ag1634
ag1621
ag1622
ag1601
ag1624
ag1625
ag1626
ag1627
ag1628
ag1629
ag1630
ag1635
ag1631
ag1632
ag1633
ag1603
ag1605
ag1636
ag1637
ag1638
ag1639
atRp3303
sg29
g47
((lp3304
g2569
ag2548
ag865
ag866
ag867
ag2550
ag2565
ag2552
ag2553
ag2554
ag2555
ag2556
ag2557
ag2558
ag2559
ag2560
ag2561
ag2562
ag2563
ag2564
ag2566
ag2580
ag2567
ag2568
ag2547
ag2570
ag2571
ag886
ag2572
ag2573
ag2574
ag2575
ag2576
ag2581
ag2577
ag2578
ag2579
ag2549
ag2551
ag2582
ag2583
ag2584
ag2585
atRp3305
sg16
g47
((lp3306
g1929
ag1908
ag390
ag1910
ag1925
ag1912
ag1913
ag1914
ag1915
ag1916
ag1917
ag1918
ag1919
ag1920
ag1921
ag1922
ag1923
ag1924
ag1926
ag1940
ag1927
ag1928
ag1907
ag1930
ag1931
ag1932
ag1933
ag1934
ag1935
ag1936
ag1941
ag1937
ag422
ag1938
ag1939
ag1909
ag1911
ag1942
ag1943
ag1944
ag1945
atRp3307
sg31
g47
((lp3308
g2657
ag2636
ag940
ag2638
ag2653
ag2640
ag2641
ag2642
ag2643
ag2644
ag2645
ag2646
ag2647
ag2648
ag2649
ag2650
ag2651
ag2652
ag2654
ag2670
ag2655
ag2656
ag2635
ag2658
ag2659
ag2660
ag2661
ag2662
ag2663
ag2664
ag2665
ag2671
ag2666
ag2667
ag2668
ag2669
ag2637
ag2639
ag2672
ag2673
ag2674
ag2675
ag2676
atRp3309
sg32
g47
((lp3310
g2701
ag2680
ag976
ag2682
ag2697
ag2684
ag2685
ag2686
ag2687
ag2688
ag2689
ag2690
ag2691
ag984
ag2692
ag2693
ag2694
ag2695
ag2696
ag2698
ag2712
ag2699
ag2700
ag2679
ag2702
ag2703
ag2704
ag2705
ag2706
ag2707
ag2708
ag2713
ag2709
ag2710
ag2711
ag2681
ag2683
ag2714
ag2715
ag2716
ag2717
atRp3311
sg33
g47
((lp3312
g2742
ag2721
ag1014
ag2723
ag2738
ag2725
ag2726
ag2727
ag2728
ag2729
ag2730
ag2731
ag2732
ag2733
ag2734
ag2735
ag2736
ag2737
ag2739
ag2753
ag2740
ag2741
ag2720
ag2743
ag2744
ag2745
ag2746
ag2747
ag2748
ag2749
ag2754
ag2750
ag2751
ag2752
ag2722
ag2724
ag2755
ag2756
ag2757
ag2758
atRp3313
sg34
g47
((lp3314
g2783
ag2762
ag1050
ag2764
ag2779
ag2766
ag2767
ag2768
ag2769
ag2770
ag2771
ag2772
ag2773
ag2774
ag2775
ag2776
ag2777
ag2778
ag2780
ag2796
ag2781
ag2782
ag2761
ag2784
ag2785
ag2786
ag2787
ag2788
ag2789
ag2790
ag2791
ag2797
ag2792
ag2793
ag2794
ag2795
ag2763
ag2765
ag2798
ag2799
ag2800
ag2801
atRp3315
sg35
g47
((lp3316
g2827
ag2805
ag1086
ag2807
ag2823
ag2809
ag2810
ag2811
ag2812
ag2813
ag2814
ag2815
ag2816
ag2817
ag2818
ag2819
ag2820
ag2821
ag2822
ag2824
ag2838
ag2825
ag2826
ag2804
ag2828
ag2829
ag2830
ag2831
ag2832
ag2833
ag2834
ag2839
ag2835
ag2836
ag2837
ag2806
ag2808
ag2840
ag2841
ag2842
ag2843
atRp3317
sg28
g47
((lp3318
g2525
ag2495
ag2496
ag2497
ag828
ag2498
ag2500
ag2501
ag2520
ag2503
ag2504
ag2505
ag2506
ag2507
ag2508
ag2509
ag2510
ag2517
ag2512
ag2513
ag2540
ag2515
ag2516
ag2511
ag2518
ag2519
ag2521
ag2522
ag2537
ag2523
ag2524
ag2494
ag2526
ag2527
ag2528
ag2529
ag2530
ag2531
ag2532
ag849
ag2538
ag2533
ag2534
ag2535
ag2536
ag2499
ag2502
ag2539
ag2514
ag2541
ag2542
ag2543
ag2544
atRp3319
sg37
g47
((lp3320
g2887
ag2926
ag2889
ag2890
ag2892
ag2959
ag2895
ag2896
ag2897
ag2919
ag2899
ag2900
ag2901
ag2902
ag2903
ag2904
ag2905
ag2906
ag2912
ag2943
ag2893
ag2910
ag2911
ag2941
ag2913
ag2907
ag2891
ag2916
ag2917
ag2918
ag2920
ag2921
ag2922
ag2923
ag2924
ag2925
ag2888
ag2927
ag2928
ag2929
ag2956
ag2930
ag2931
ag2932
ag2933
ag2934
ag2935
ag2936
ag2937
ag2938
ag2955
ag2939
ag2940
ag2909
ag2942
ag2908
ag2944
ag2945
ag2946
ag2950
ag2947
ag2894
ag2949
ag2915
ag2951
ag2952
ag2953
ag2914
ag2898
ag2954
ag2957
ag2958
ag2948
ag2960
ag2961
ag2962
ag2963
ag2964
ag2965
atRp3321
sg39
g47
((lp3322
g3031
ag3010
ag1230
ag3012
ag3027
ag3014
ag3015
ag3016
ag3017
ag3018
ag3019
ag3020
ag3021
ag3022
ag3023
ag3024
ag1240
ag3025
ag3026
ag3028
ag3042
ag3029
ag3030
ag3009
ag3032
ag3033
ag3034
ag3035
ag3036
ag3037
ag3038
ag3043
ag3039
ag3040
ag3041
ag3011
ag3013
ag3044
ag3045
ag3046
ag3047
atRp3323
sg36
g47
((lp3324
g2868
ag2847
ag1122
ag2849
ag2864
ag2851
ag2852
ag2853
ag2854
ag2855
ag2856
ag2857
ag2858
ag2859
ag2860
ag2861
ag1132
ag2862
ag2863
ag2865
ag2879
ag2866
ag2867
ag2846
ag2869
ag2870
ag2871
ag2872
ag2873
ag2874
ag2875
ag2880
ag2876
ag2877
ag2878
ag2848
ag2850
ag2881
ag2882
ag2883
ag2884
atRp3325
sg41
g47
((lp3326
g3113
ag3092
ag1303
ag3094
ag3109
ag3096
ag3097
ag3098
ag3099
ag3100
ag3101
ag3102
ag3103
ag3104
ag3105
ag3106
ag3107
ag3108
ag3110
ag3124
ag3111
ag3112
ag3091
ag3114
ag3115
ag3116
ag3117
ag3118
ag3119
ag3120
ag3125
ag3121
ag3122
ag3123
ag3093
ag3095
ag3126
ag3127
ag3128
ag3129
atRp3327
sg17
g47
((lp3328
g1970
ag1949
ag427
ag1951
ag1966
ag1953
ag1954
ag1955
ag1956
ag1957
ag1958
ag1959
ag1960
ag435
ag1961
ag1962
ag1963
ag1964
ag1965
ag1967
ag1981
ag1968
ag1969
ag1948
ag1971
ag1972
ag1973
ag1974
ag1975
ag1976
ag1977
ag1982
ag1978
ag1979
ag1980
ag1950
ag1952
ag1983
ag1984
ag1985
ag1986
atRp3329
sg38
g47
((lp3330
g2990
ag2969
ag1194
ag2971
ag2986
ag2973
ag2974
ag2975
ag2976
ag2977
ag2978
ag2979
ag2980
ag2981
ag2982
ag2983
ag2984
ag2985
ag2987
ag3001
ag2988
ag2989
ag2968
ag2991
ag2992
ag2993
ag2994
ag2995
ag2996
ag2997
ag3002
ag2998
ag2999
ag3000
ag2970
ag2972
ag3003
ag3004
ag3005
ag3006
atRp3331
sg44
g47
((lp3332
g3200
ag3179
ag1379
ag3181
ag3196
ag3183
ag3184
ag3185
ag3186
ag3187
ag3188
ag3189
ag3190
ag1387
ag3191
ag3192
ag3193
ag3194
ag3195
ag3197
ag3211
ag3198
ag3199
ag3178
ag3201
ag3202
ag3203
ag3204
ag3205
ag3206
ag3207
ag3212
ag3208
ag3209
ag3210
ag3180
ag3182
ag3213
ag3214
ag3215
ag3216
atRp3333
st.