((lp1
S'http://im.nju.edu.cn'
p2
a(lp3
S'im.nju.edu.cn'
p4
a(S'im.nju.edu.cn'
tp5
(dp6
S'http://im.nju.edu.cn/shownodir.aspx?categoryid=tcat2010060835&page=15&tcategoryid=tcat2010060835'
p7
c__builtin__
set
p8
((lp9
S'http://im.nju.edu.cn/shownodir.aspx?contentid=cont20100701113&tcategoryid=tcat2010060835'
p10
aS'http://im.nju.edu.cn/shownodir.aspx?contentid=cont2010120725&tcategoryid=tcat2010060835'
p11
aS'http://im.nju.edu.cn/shownodir.aspx?contentid=cont2011101016&tcategoryid=tcat2010060835'
p12
aS'http://im.nju.edu.cn/shownodir.aspx?contentid=cont2010092569&tcategoryid=tcat2010060835'
p13
aS'http://im.nju.edu.cn/shownodir.aspx?categoryid=tcat2010060835&page=14&tcategoryid=tcat2010060835'
p14
aS'http://im.nju.edu.cn/shownodir.aspx?contentid=cont2011031116&tcategoryid=tcat2010060835'
p15
aS'http://im.nju.edu.cn/shownodir.aspx?contentid=cont2011052625&tcategoryid=tcat2010060835'
p16
aS'http://im.nju.edu.cn/shownodir.aspx?contentid=cont2011051214&tcategoryid=tcat2010060835'
p17
aS'http://im.nju.edu.cn/shownodir.aspx?contentid=cont2010092571&tcategoryid=tcat2010060835'
p18
aS'http://im.nju.edu.cn/shownodir.aspx?contentid=cont2010112325&tcategoryid=tcat2010060835'
p19
aS'http://im.nju.edu.cn/shownodir.aspx?contentid=cont2010092588&tcategoryid=tcat2010060835'
p20
atRp21
sS'http://im.nju.edu.cn/labcenter/ShowNews.aspx?N_Id=29&NewsType=8&TypeNum=55'
p22
g8
((ltRp23
sS'http://im.nju.edu.cn/showtwodir.aspx?contentid=cont20100630326&parentid=bcat2010063032&tcategoryid=tcat20100608134&twocategoryid=bcat2010063054'
p24
g8
((ltRp25
sS'http://im.nju.edu.cn/labcenter/Common.aspx?NewsType=13'
p26
g8
((lp27
S'http://im.nju.edu.cn/labcenter/Common.aspx?NewsType=13&Page=3&TypeNum='
p28
aS'http://im.nju.edu.cn/labcenter/Common.aspx?NewsType=13&Page=2&TypeNum='
p29
atRp30
sS'http://im.nju.edu.cn/labcenter/Common.aspx?NewsType=11'
p31
g8
((lp32
S'http://im.nju.edu.cn/labcenter/ShowNews.aspx?N_Id=122&NewsType=11&TypeNum=11'
p33
aS'http://im.nju.edu.cn/labcenter/ShowNews.aspx?N_Id=123&NewsType=11&TypeNum=11'
p34
atRp35
sS'http://im.nju.edu.cn/labcenter/Common.aspx?NewsType=10'
p36
g8
((lp37
S'http://im.nju.edu.cn/labcenter/ShowNews.aspx?N_Id=120&NewsType=10&TypeNum=10'
p38
aS'http://im.nju.edu.cn/labcenter/Common.aspx?NewsType=10&Page=2&TypeNum='
p39
aS'http://im.nju.edu.cn/labcenter/ShowNews.aspx?N_Id=119&NewsType=10&TypeNum=10'
p40
aS'http://im.nju.edu.cn/labcenter/ShowNews.aspx?N_Id=126&NewsType=10&TypeNum=10'
p41
aS'http://im.nju.edu.cn/labcenter/ShowNews.aspx?N_Id=125&NewsType=10&TypeNum=10'
p42
atRp43
sS'http://im.nju.edu.cn/shownodir.aspx?contentid=cont2014121515&tcategoryid=tcat2010060826'
p44
g8
((ltRp45
sS'http://im.nju.edu.cn/showonedir.aspx?contentid=cont20100624445&parentid=bcat2010062436&tcategoryid=tcat20100608155'
p46
g8
((lp47
S'http://im.nju.edu.cn/showonedir.aspx?contentid=cont20100627337&parentid=bcat2010062436&tcategoryid=tcat20100608155'
p48
aS'http://im.nju.edu.cn/showonedir.aspx?contentid=cont20100627133&parentid=bcat2010062436&tcategoryid=tcat20100608155%09'
p49
aS'http://im.nju.edu.cn/showonedir.aspx?contentid=cont20100627252&parentid=bcat2010062436&tcategoryid=tcat20100608155'
p50
aS'http://im.nju.edu.cn/showonedir.aspx?contentid=cont2011111741&parentid=bcat2010062436&tcategoryid=tcat20100608155'
p51
aS'http://im.nju.edu.cn/showonedir.aspx?contentid=cont20100627263&parentid=bcat2010062436&tcategoryid=tcat20100608155'
p52
aS'http://im.nju.edu.cn/showonedir.aspx?contentid=cont20100627352&parentid=bcat2010062436&tcategoryid=tcat20100608155'
p53
aS'http://im.nju.edu.cn/showonedir.aspx?contentid=cont20100627311&parentid=bcat2010062436&tcategoryid=tcat20100608155'
p54
aS'http://im.nju.edu.cn/showonedir.aspx?contentid=cont20100627146&parentid=bcat2010062436&tcategoryid=tcat20100608155+'
p55
aS'http://im.nju.edu.cn/showonedir.aspx?contentid=cont2011111733&parentid=bcat2010062436&tcategoryid=tcat20100608155'
p56
aS'http://im.nju.edu.cn/showonedir.aspx?contentid=cont20100627233&parentid=bcat2010062436&tcategoryid=tcat20100608155'
p57
aS'http://im.nju.edu.cn/showonedir.aspx?contentid=cont2011111718&parentid=bcat2010062436&tcategoryid=tcat20100608155'
p58
aS'http://im.nju.edu.cn/showonedir.aspx?contentid=cont20100627221&parentid=bcat2010062436&tcategoryid=tcat20100608155'
p59
aS'http://im.nju.edu.cn/showonedir.aspx?contentid=cont20100627282&parentid=bcat2010062436&tcategoryid=tcat20100608155'
p60
aS'http://im.nju.edu.cn/showonedir.aspx?contentid=cont20100627385&parentid=bcat2010062436&tcategoryid=tcat20100608155'
p61
aS'http://im.nju.edu.cn/showonedir.aspx?contentid=cont20100627271&parentid=bcat2010062436&tcategoryid=tcat20100608155'
p62
aS'http://im.nju.edu.cn/showonedir.aspx?contentid=cont20100627361&parentid=bcat2010062436&tcategoryid=tcat20100608155'
p63
aS'http://im.nju.edu.cn/showonedir.aspx?contentid=cont20100627347&parentid=bcat2010062436&tcategoryid=tcat20100608155'
p64
aS'http://im.nju.edu.cn/showonedir.aspx?contentid=cont20100627322&parentid=bcat2010062436&tcategoryid=tcat20100608155'
p65
aS'http://im.nju.edu.cn/showonedir.aspx?contentid=cont20100627150&parentid=bcat2010062436&tcategoryid=tcat20100608155'
p66
aS'http://im.nju.edu.cn/showonedir.aspx?contentid=cont20100627375&parentid=bcat2010062436&tcategoryid=tcat20100608155'
p67
aS'http://im.nju.edu.cn/showonedir.aspx?contentid=cont20100627245&parentid=bcat2010062436&tcategoryid=tcat20100608155'
p68
aS'http://im.nju.edu.cn/showonedir.aspx?contentid=cont2010101414&parentid=bcat2010062436&tcategoryid=tcat20100608155'
p69
aS'http://im.nju.edu.cn/showonedir.aspx?contentid=cont2010102224&parentid=bcat2010062436&tcategoryid=tcat20100608155'
p70
aS'http://im.nju.edu.cn/showonedir.aspx?contentid=cont20100627293&parentid=bcat2010062436&tcategoryid=tcat20100608155'
p71
aS'http://im.nju.edu.cn/showonedir.aspx?contentid=cont20100627202&parentid=bcat2010062436&tcategoryid=tcat20100608155'
p72
aS'http://im.nju.edu.cn/showonedir.aspx?contentid=cont20100627215&parentid=bcat2010062436&tcategoryid=tcat20100608155'
p73
aS'http://im.nju.edu.cn/showonedir.aspx?contentid=cont20100627176&parentid=bcat2010062436&tcategoryid=tcat20100608155'
p74
aS'http://im.nju.edu.cn/showonedir.aspx?contentid=cont20100627181&parentid=bcat2010062436&tcategoryid=tcat20100608155'
p75
aS'http://im.nju.edu.cn/showonedir.aspx?contentid=cont2011111726&parentid=bcat2010062436&tcategoryid=tcat20100608155'
p76
aS'http://im.nju.edu.cn/showonedir.aspx?contentid=cont20100627306&parentid=bcat2010062436&tcategoryid=tcat20100608155'
p77
aS'http://im.nju.edu.cn/showonedir.aspx?contentid=cont20100627394&parentid=bcat2010062436&tcategoryid=tcat20100608155'
p78
aS'http://im.nju.edu.cn/showonedir.aspx?contentid=cont2010101423&parentid=bcat2010062436&tcategoryid=tcat20100608155'
p79
atRp80
sS'http://im.nju.edu.cn/showtwodir.aspx?categoryid=bcat2010062931&page=1&parentid=bcat2010062931&tcategoryid=tcat2010060846'
p81
g8
((ltRp82
sS'http://im.nju.edu.cn/shownodir.aspx?categoryid=bcat2010062966&tcategoryid=tcat2010060846'
p83
g8
((lp84
S'http://im.nju.edu.cn/shownodir.aspx?categoryid=bcat2011041315&tcategoryid=tcat2010060846'
p85
aS'http://im.nju.edu.cn/shownodir.aspx?categoryid=bcat2010070112&tcategoryid=tcat2010060846'
p86
aS'http://im.nju.edu.cn/shownodir.aspx?categoryid=bcat2010062966&page=1&tcategoryid=tcat2010060846'
p87
aS'http://im.nju.edu.cn/shownodir.aspx?contentid=cont2010070313&tcategoryid=tcat2010060846'
p88
atRp89
sS'http://im.nju.edu.cn/labcenter/ShowNews.aspx?N_Id=22&NewsType=8&TypeNum=53'
p90
g8
((ltRp91
sS'http://im.nju.edu.cn/labcenter/Common.aspx?NewsType=2&TypeNum=26'
p92
g8
((ltRp93
sS'http://im.nju.edu.cn/showonedir.aspx?tcategoryid=tcat20100608145'
p94
g8
((lp95
S'http://im.nju.edu.cn/showonedir.aspx?contentid=cont2010100958&parentid=bcat2010090120&tcategoryid=tcat20100608145'
p96
aS'http://im.nju.edu.cn/showonedir.aspx?categoryid=bcat2010090120&parentid=bcat2010090120&tcategoryid=tcat20100608145'
p97
aS'http://im.nju.edu.cn/showonedir.aspx?categoryid=bcat2010070158&parentid=bcat2010070158&tcategoryid=tcat20100608145'
p98
aS'http://im.nju.edu.cn/showonedir.aspx?contentid=cont2011042946&parentid=bcat2010090120&tcategoryid=tcat20100608145'
p99
aS'http://im.nju.edu.cn/showonedir.aspx?contentid=cont2011101713&parentid=bcat2010090120&tcategoryid=tcat20100608145'
p100
aS'http://im.nju.edu.cn/showonedir.aspx?categoryid=bcat2010062816&parentid=bcat2010062816&tcategoryid=tcat20100608145'
p101
aS'http://im.nju.edu.cn/showonedir.aspx?categoryid=bcat2010090120&page=1&parentid=bcat2010090120&tcategoryid=tcat20100608145'
p102
aS'http://im.nju.edu.cn/showonedir.aspx?contentid=cont2011010436&parentid=bcat2010090120&tcategoryid=tcat20100608145'
p103
atRp104
sS'http://im.nju.edu.cn/showonedir.aspx?tcategoryid=tcat2010060858'
p105
g8
((lp106
S'http://im.nju.edu.cn/showonedir.aspx?contentid=cont2014012419&parentid=cont2014012419&tcategoryid=tcat2010060858'
p107
aS'http://im.nju.edu.cn/showonedir.aspx?categoryid=bcat2012050852&parentid=bcat2012050852&tcategoryid=tcat2010060858'
p108
aS'http://im.nju.edu.cn/showonedir.aspx?contentid=cont2013041646&parentid=cont2013041646&tcategoryid=tcat2010060858'
p109
aS'http://im.nju.edu.cn/showonedir.aspx?contentid=cont2013042329&parentid=cont2013042329&tcategoryid=tcat2010060858'
p110
aS'http://im.nju.edu.cn/showonedir.aspx?contentid=cont2013112438&parentid=cont2013112438&tcategoryid=tcat2010060858'
p111
aS'http://im.nju.edu.cn/showonedir.aspx?contentid=cont2014043013&parentid=cont2014043013&tcategoryid=tcat2010060858'
p112
aS'http://im.nju.edu.cn/showonedir.aspx?contentid=cont2013091519&parentid=cont2013091519&tcategoryid=tcat2010060858'
p113
aS'http://im.nju.edu.cn/showonedir.aspx?contentid=cont2013121612&parentid=cont2013121612&tcategoryid=tcat2010060858'
p114
aS'http://im.nju.edu.cn/showonedir.aspx?contentid=cont2014070219&parentid=cont2014070219&tcategoryid=tcat2010060858'
p115
aS'http://im.nju.edu.cn/showonedir.aspx?contentid=cont2013042331&parentid=cont2013042331&tcategoryid=tcat2010060858'
p116
aS'http://im.nju.edu.cn/showonedir.aspx?contentid=cont2013112428&parentid=cont2013112428&tcategoryid=tcat2010060858'
p117
aS'http://im.nju.edu.cn/showonedir.aspx?contentid=cont2013103038&parentid=cont2013103038&tcategoryid=tcat2010060858'
p118
aS'http://im.nju.edu.cn/showonedir.aspx?contentid=cont2014041011&parentid=cont2014041011&tcategoryid=tcat2010060858'
p119
aS'http://im.nju.edu.cn/showonedir.aspx?contentid=cont2013103026&parentid=cont2013103026&tcategoryid=tcat2010060858'
p120
aS'http://im.nju.edu.cn/showonedir.aspx?contentid=cont2014042519&parentid=cont2014042519&tcategoryid=tcat2010060858'
p121
aS'http://im.nju.edu.cn/showonedir.aspx?contentid=cont2013121216&parentid=cont2013121216&tcategoryid=tcat2010060858'
p122
atRp123
sS'http://im.nju.edu.cn/shownodir.aspx?tcategoryid=tcat2010060835'
p124
g8
((ltRp125
sS'http://im.nju.edu.cn/labcenter/Common.aspx?NewsType=5&TypeNum=41'
p126
g8
((ltRp127
sS'http://im.nju.edu.cn/showtwodir.aspx?categoryid=bcat2010070146&parentid=bcat2010070146&tcategoryid=tcat20100608111'
p128
g8
((ltRp129
sS'http://im.nju.edu.cn/shownodir.aspx?categoryid=bcat2010062918&parentid=&tcategoryid=tcat2010060846'
p130
g8
((ltRp131
sg28
g8
((lp132
S'http://im.nju.edu.cn/labcenter/Common.aspx?NewsType=13&Page=1&TypeNum='
p133
atRp134
sS'http://im.nju.edu.cn/labcenter/Common.aspx?NewsType=6&TypeNum=44'
p135
g8
((ltRp136
sS'http://im.nju.edu.cn/shownodir.aspx?contentid=cont2010062938&tcategoryid=tcat2010060876'
p137
g8
((ltRp138
sg98
g8
((lp139
S'http://im.nju.edu.cn/showonedir.aspx?contentid=cont2011042012&parentid=bcat2010070158&tcategoryid=tcat20100608145'
p140
aS'http://im.nju.edu.cn/showonedir.aspx?contentid=cont2010070158&parentid=bcat2010070158&tcategoryid=tcat20100608145'
p141
aS'http://im.nju.edu.cn/showonedir.aspx?contentid=cont2010110124&parentid=bcat2010070158&tcategoryid=tcat20100608145'
p142
aS'http://im.nju.edu.cn/showonedir.aspx?contentid=cont2010070162&parentid=bcat2010070158&tcategoryid=tcat20100608145'
p143
aS'http://im.nju.edu.cn/showonedir.aspx?categoryid=bcat2010070158&page=1&parentid=bcat2010070158&tcategoryid=tcat20100608145'
p144
aS'http://im.nju.edu.cn/showonedir.aspx?contentid=cont2010070130&parentid=bcat2010070158&tcategoryid=tcat20100608145'
p145
aS'http://im.nju.edu.cn/showonedir.aspx?contentid=cont2010110314&parentid=bcat2010070158&tcategoryid=tcat20100608145'
p146
aS'http://im.nju.edu.cn/showonedir.aspx?contentid=cont2010070127&parentid=bcat2010070158&tcategoryid=tcat20100608145'
p147
atRp148
sS'http://im.nju.edu.cn/shownodir.aspx?contentid=cont2014121618&parentid=tcat2010060835&tcategoryid=tcat2010060835'
p149
g8
((lp150
g124
atRp151
sS'http://im.nju.edu.cn/shownodir.aspx?contentid=cont2011121314&tcategoryid=tcat2010060826'
p152
g8
((lp153
S'http://im.nju.edu.cn/dpteval'
p154
atRp155
sS'http://im.nju.edu.cn/labcenter/Common.aspx?NewsType=4'
p156
g8
((lp157
S'http://im.nju.edu.cn/labcenter/Common.aspx?NewsType=4&TypeNum=57'
p158
aS'http://im.nju.edu.cn/labcenter/Common.aspx?NewsType=4&TypeNum=35'
p159
aS'http://im.nju.edu.cn/labcenter/Common.aspx?NewsType=4&TypeNum=36'
p160
aS'http://im.nju.edu.cn/labcenter/Common.aspx?NewsType=4&TypeNum=37'
p161
aS'http://im.nju.edu.cn/labcenter/Common.aspx?NewsType=4&TypeNum=58'
p162
aS'http://im.nju.edu.cn/labcenter/Common.aspx?NewsType=4&TypeNum=33'
p163
atRp164
sS'http://im.nju.edu.cn/labcenter/Common.aspx?NewsType=62'
p165
g8
((lp166
S'http://im.nju.edu.cn/labcenter/Common.aspx?NewsType=62&TypeNum=68'
p167
aS'http://im.nju.edu.cn/labcenter/Common.aspx?NewsType=62&TypeNum=66'
p168
aS'http://im.nju.edu.cn/labcenter/Common.aspx?NewsType=62&TypeNum=67'
p169
aS'http://im.nju.edu.cn/labcenter/Common.aspx?NewsType=62&TypeNum=64'
p170
aS'http://im.nju.edu.cn/labcenter/Common.aspx?NewsType=62&TypeNum=65'
p171
atRp172
sS'http://im.nju.edu.cn/labcenter/Common.aspx?NewsType=8&TypeNum=54'
p173
g8
((lp174
S'http://im.nju.edu.cn/labcenter/ShowNews.aspx?N_Id=28&NewsType=8&TypeNum=54'
p175
aS'http://im.nju.edu.cn/labcenter/ShowNews.aspx?N_Id=27&NewsType=8&TypeNum=54'
p176
aS'http://im.nju.edu.cn/labcenter/ShowNews.aspx?N_Id=26&NewsType=8&TypeNum=54'
p177
atRp178
sS'http://im.nju.edu.cn/labcenter/Common.aspx?NewsType=8&TypeNum=55'
p179
g8
((lp180
S'http://im.nju.edu.cn/labcenter/ShowNews.aspx?N_Id=32&NewsType=8&TypeNum=55'
p181
aS'http://im.nju.edu.cn/labcenter/ShowNews.aspx?N_Id=30&NewsType=8&TypeNum=55'
p182
ag22
aS'http://im.nju.edu.cn/labcenter/ShowNews.aspx?N_Id=31&NewsType=8&TypeNum=55'
p183
atRp184
sg108
g8
((ltRp185
sS'http://im.nju.edu.cn/shownodir.aspx?categoryid=tcat2010060835&page=12&tcategoryid=tcat2010060835'
p186
g8
((lp187
S'http://im.nju.edu.cn/shownodir.aspx?contentid=cont20110914152&tcategoryid=tcat2010060835'
p188
aS'http://im.nju.edu.cn/shownodir.aspx?contentid=cont20110914147&tcategoryid=tcat2010060835'
p189
aS'http://im.nju.edu.cn/shownodir.aspx?contentid=cont20110914174&tcategoryid=tcat2010060835'
p190
aS'http://im.nju.edu.cn/shownodir.aspx?contentid=cont20110914101&tcategoryid=tcat2010060835'
p191
aS'http://im.nju.edu.cn/shownodir.aspx?contentid=cont2011091496&tcategoryid=tcat2010060835'
p192
aS'http://im.nju.edu.cn/shownodir.aspx?categoryid=tcat2010060835&page=11&tcategoryid=tcat2010060835'
p193
aS'http://im.nju.edu.cn/shownodir.aspx?contentid=cont20110914116&tcategoryid=tcat2010060835'
p194
aS'http://im.nju.edu.cn/shownodir.aspx?contentid=cont20110914124&tcategoryid=tcat2010060835'
p195
aS'http://im.nju.edu.cn/shownodir.aspx?contentid=cont20110914167&tcategoryid=tcat2010060835'
p196
aS'http://im.nju.edu.cn/shownodir.aspx?contentid=cont20110914134&tcategoryid=tcat2010060835'
p197
aS'http://im.nju.edu.cn/shownodir.aspx?contentid=cont2011091483&tcategoryid=tcat2010060835'
p198
atRp199
sS'http://im.nju.edu.cn/labcenter/ShowNews.aspx?N_Id=36&NewsType=13&TypeNum=13'
p200
g8
((lp201
g26
atRp202
sS'http://im.nju.edu.cn/labcenter/WD.aspx?Page=2&f=1'
p203
g8
((lp204
S'http://im.nju.edu.cn/labcenter/WD.aspx?Page=3&f=1'
p205
aS'http://im.nju.edu.cn/labcenter/HD.aspx?q=46'
p206
aS'http://im.nju.edu.cn/labcenter/HD.aspx?q=47'
p207
aS'http://im.nju.edu.cn/labcenter/HD.aspx?q=45'
p208
aS'http://im.nju.edu.cn/labcenter/HD.aspx?q=48'
p209
aS'http://im.nju.edu.cn/labcenter/HD.aspx?q=49'
p210
aS'http://im.nju.edu.cn/labcenter/HD.aspx?q=50'
p211
atRp212
sg87
g8
((ltRp213
sS'http://im.nju.edu.cn/showtwodir.aspx?tcategoryid=tcat2010060846'
p214
g8
((lp215
S'http://im.nju.edu.cn/showtwodir.aspx?categoryid=bcat2010062953&parentid=bcat2010062953&tcategoryid=tcat2010060846'
p216
aS'http://im.nju.edu.cn/showtwodir.aspx?categoryid=bcat2010062918&parentid=bcat2010062918&tcategoryid=tcat2010060846'
p217
aS'http://im.nju.edu.cn/showtwodir.aspx?categoryid=bcat2010062966&parentid=bcat2010062966&tcategoryid=tcat2010060846'
p218
aS'http://im.nju.edu.cn/showtwodir.aspx?categoryid=bcat2010062941&parentid=bcat2010062941&tcategoryid=tcat2010060846'
p219
aS'http://im.nju.edu.cn/showtwodir.aspx?categoryid=bcat2010062925&parentid=bcat2010062925&tcategoryid=tcat2010060846'
p220
aS'http://im.nju.edu.cn/showtwodir.aspx?categoryid=bcat2010090115&parentid=bcat2010090115&tcategoryid=tcat2010060846'
p221
aS'http://im.nju.edu.cn/showtwodir.aspx?categoryid=bcat2010062931&parentid=bcat2010062931&tcategoryid=tcat2010060846'
p222
atRp223
sS'http://im.nju.edu.cn/shownodir.aspx?categoryid=tcat2010060835&page=5&tcategoryid=tcat2010060835'
p224
g8
((lp225
S'http://im.nju.edu.cn/shownodir.aspx?contentid=cont2010062527&tcategoryid=tcat2010060835'
p226
aS'http://im.nju.edu.cn/shownodir.aspx?contentid=cont2010062512&tcategoryid=tcat2010060835'
p227
aS'http://im.nju.edu.cn/shownodir.aspx?contentid=cont2012060613&tcategoryid=tcat2010060835'
p228
aS'http://im.nju.edu.cn/shownodir.aspx?contentid=cont2012052928&tcategoryid=tcat2010060835'
p229
aS'http://im.nju.edu.cn/shownodir.aspx?categoryid=tcat2010060835&page=6&tcategoryid=tcat2010060835'
p230
aS'http://im.nju.edu.cn/shownodir.aspx?contentid=cont2012052917&tcategoryid=tcat2010060835'
p231
aS'http://im.nju.edu.cn/shownodir.aspx?contentid=cont2012092828&tcategoryid=tcat2010060835'
p232
aS'http://im.nju.edu.cn/shownodir.aspx?contentid=cont2012060628&tcategoryid=tcat2010060835'
p233
aS'http://im.nju.edu.cn/shownodir.aspx?contentid=cont2012101714&tcategoryid=tcat2010060835'
p234
aS'http://im.nju.edu.cn/shownodir.aspx?contentid=cont2012060636&tcategoryid=tcat2010060835'
p235
aS'http://im.nju.edu.cn/shownodir.aspx?contentid=cont2012052932&tcategoryid=tcat2010060835'
p236
atRp237
sg227
g8
((ltRp238
sS'http://im.nju.edu.cn/shownodir.aspx?contentid=cont20100629261&tcategoryid=tcat2010060846'
p239
g8
((lp240
S'http://im.nju.edu.cn/shownodir.aspx?categoryid=bcat2010062925&parentid=&tcategoryid=tcat2010060846'
p241
atRp242
sS'http://im.nju.edu.cn/shownodir.aspx?contentid=cont20100630112&tcategoryid=tcat2010060835'
p243
g8
((ltRp244
sS'http://im.nju.edu.cn/labcenter'
p245
g8
((lp246
S'http://im.nju.edu.cn/labcenter/ShowNews.aspx?N_Id=49&NewsType=13&TypeNum=13'
p247
aS'http://im.nju.edu.cn/labcenter/ShowNews.aspx?N_Id=63&NewsType=13&TypeNum=13'
p248
ag31
ag36
aS'http://im.nju.edu.cn/labcenter/Common.aspx?NewsType=15'
p249
aS'http://im.nju.edu.cn/labcenter/ShowNews.aspx?N_Id=45&NewsType=13&TypeNum=13'
p250
aS'http://im.nju.edu.cn/labcenter/ShowNews.aspx?N_Id=131&NewsType=11&TypeNum=11'
p251
aS'http://im.nju.edu.cn/labcenter/ShowNews.aspx?N_Id=153&NewsType=10&TypeNum=10'
p252
aS'http://im.nju.edu.cn/labcenter/ShowNews.aspx?N_Id=146&NewsType=15&TypeNum=15'
p253
aS'http://im.nju.edu.cn/labcenter/Common.aspx?NewsType=6'
p254
aS'http://im.nju.edu.cn/labcenter/ShowNews.aspx?N_Id=144&NewsType=15&TypeNum=15'
p255
aS'http://im.nju.edu.cn/labcenter/ShowNews.aspx?N_Id=42&NewsType=13&TypeNum=13'
p256
aS'http://im.nju.edu.cn/labcenter/ShowNews.aspx?N_Id=118&NewsType=10&TypeNum=10'
p257
aS'http://im.nju.edu.cn/labcenter/ShowNews.aspx?N_Id=62&NewsType=13&TypeNum=13'
p258
aS'http://im.nju.edu.cn/labcenter/ShowNews.aspx?N_Id=37&NewsType=13&TypeNum=13'
p259
aS'http://im.nju.edu.cn/labcenter/ShowNews.aspx?N_Id=68&NewsType=13&TypeNum=13'
p260
aS'http://im.nju.edu.cn/labcenter/ShowNews.aspx?N_Id=142&NewsType=15&TypeNum=15'
p261
aS'http://im.nju.edu.cn/labcenter/ShowNews.aspx?N_Id=60&NewsType=13&TypeNum=13'
p262
aS'http://im.nju.edu.cn/labcenter/ShowNews.aspx?N_Id=47&NewsType=13&TypeNum=13'
p263
aS'http://im.nju.edu.cn/labcenter/ShowNews.aspx?N_Id=46&NewsType=13&TypeNum=13'
p264
aS'http://im.nju.edu.cn/labcenter/ShowNews.aspx?N_Id=121&NewsType=11&TypeNum=11'
p265
aS'http://im.nju.edu.cn/labcenter/ShowNews.aspx?N_Id=53&NewsType=13&TypeNum=13'
p266
aS'http://im.nju.edu.cn/labcenter/ShowNews.aspx?N_Id=67&NewsType=13&TypeNum=13'
p267
aS'http://im.nju.edu.cn/labcenter/ShowNews.aspx?N_Id=48&NewsType=13&TypeNum=13'
p268
aS'http://im.nju.edu.cn/labcenter/ShowNews.aspx?N_Id=52&NewsType=13&TypeNum=13'
p269
ag165
aS'http://im.nju.edu.cn/labcenter/Index.aspx'
p270
aS'http://im.nju.edu.cn/labcenter/ShowNews.aspx?N_Id=132&NewsType=11&TypeNum=11'
p271
aS'http://im.nju.edu.cn/labcenter/ShowNews.aspx?N_Id=61&NewsType=13&TypeNum=13'
p272
aS'http://im.nju.edu.cn/labcenter/ShowNews.aspx?N_Id=114&NewsType=10&TypeNum=10'
p273
aS'http://im.nju.edu.cn/labcenter/ShowNews.aspx?N_Id=57&NewsType=13&TypeNum=13'
p274
ag200
aS'http://im.nju.edu.cn/labcenter/ShowNews.aspx?N_Id=143&NewsType=15&TypeNum=15'
p275
aS'http://im.nju.edu.cn/labcenter/Common.aspx?NewsType=1&TypeNum=16'
p276
aS'http://im.nju.edu.cn/labcenter/ShowNews.aspx?N_Id=117&NewsType=10&TypeNum=10'
p277
aS'http://im.nju.edu.cn/labcenter/ShowNews.aspx?N_Id=56&NewsType=13&TypeNum=13'
p278
aS'http://im.nju.edu.cn/labcenter/ShowNews.aspx?N_Id=64&NewsType=13&TypeNum=13'
p279
aS'http://im.nju.edu.cn/labcenter/Common.aspx?NewsType=8'
p280
aS'http://im.nju.edu.cn/labcenter/ShowNews.aspx?N_Id=165&NewsType=11&TypeNum=11'
p281
aS'http://im.nju.edu.cn/labcenter/ShowNews.aspx?N_Id=38&NewsType=13&TypeNum=13'
p282
aS'http://im.nju.edu.cn/labcenter/Common.aspx?NewsType=3'
p283
aS'http://im.nju.edu.cn/labcenter/Common.aspx?NewsType=2'
p284
aS'http://im.nju.edu.cn/labcenter/ShowNews.aspx?N_Id=51&NewsType=13&TypeNum=13'
p285
aS'http://im.nju.edu.cn/labcenter/ShowNews.aspx?N_Id=152&NewsType=11&TypeNum=11'
p286
aS'http://im.nju.edu.cn/labcenter/ShowNews.aspx?N_Id=72&NewsType=13&TypeNum=13'
p287
aS'http://im.nju.edu.cn/labcenter/Common.aspx?NewsType=5'
p288
aS'http://im.nju.edu.cn/labcenter/ShowNews.aspx?N_Id=145&NewsType=15&TypeNum=15'
p289
aS'http://im.nju.edu.cn/labcenter/ShowNews.aspx?N_Id=59&NewsType=13&TypeNum=13'
p290
ag156
aS'http://im.nju.edu.cn/labcenter/ShowNews.aspx?N_Id=164&NewsType=11&TypeNum=11'
p291
aS'http://im.nju.edu.cn/labcenter/ShowNews.aspx?N_Id=71&NewsType=13&TypeNum=13'
p292
aS'http://im.nju.edu.cn/labcenter/ShowNews.aspx?N_Id=54&NewsType=13&TypeNum=13'
p293
aS'http://im.nju.edu.cn/labcenter/ShowNews.aspx?N_Id=39&NewsType=13&TypeNum=13'
p294
aS'http://im.nju.edu.cn/labcenter/Common.aspx?NewsType=9'
p295
aS'http://im.nju.edu.cn/labcenter/ShowNews.aspx?N_Id=55&NewsType=13&TypeNum=13'
p296
aS'http://im.nju.edu.cn/labcenter/ShowNews.aspx?N_Id=40&NewsType=13&TypeNum=13'
p297
aS'http://im.nju.edu.cn/labcenter/ShowNews.aspx?N_Id=115&NewsType=10&TypeNum=10'
p298
aS'http://im.nju.edu.cn/labcenter/ShowNews.aspx?N_Id=70&NewsType=13&TypeNum=13'
p299
aS'http://im.nju.edu.cn/labcenter/ShowNews.aspx?N_Id=116&NewsType=10&TypeNum=10'
p300
aS'http://im.nju.edu.cn/labcenter/Common.aspx?NewsType=1'
p301
aS'http://im.nju.edu.cn/labcenter/ShowNews.aspx?N_Id=41&NewsType=13&TypeNum=13'
p302
aS'http://im.nju.edu.cn/labcenter/WD.aspx'
p303
atRp304
sS'http://im.nju.edu.cn/labcenter/WD.aspx?Page=2&f=2'
p305
g8
((lp306
S'http://im.nju.edu.cn/labcenter/HD.aspx?q=19'
p307
aS'http://im.nju.edu.cn/labcenter/HD.aspx?q=18'
p308
aS'http://im.nju.edu.cn/labcenter/HD.aspx?q=23&s=1'
p309
aS'http://im.nju.edu.cn/labcenter/WD.aspx?Page=3&f=2'
p310
aS'http://im.nju.edu.cn/labcenter/HD.aspx?q=20'
p311
aS'http://im.nju.edu.cn/labcenter/HD.aspx?q=21'
p312
aS'http://im.nju.edu.cn/labcenter/HD.aspx?q=22'
p313
atRp314
sg154
g8
((lp315
S'http://im.nju.edu.cn/dpteval/default.aspx'
p316
atRp317
sg133
g8
((ltRp318
sS'http://im.nju.edu.cn/showonedir.aspx?tcategoryid=tcat20100608101'
p319
g8
((lp320
S'http://im.nju.edu.cn/showonedir.aspx?contentid=cont2010070118&parentid=cont2010070118&tcategoryid=tcat20100608101'
p321
aS'http://im.nju.edu.cn/showonedir.aspx?contentid=cont2010070183&parentid=cont2010070183&tcategoryid=tcat20100608101'
p322
aS'http://im.nju.edu.cn/showonedir.aspx?contentid=cont20100629259&parentid=cont20100629259&tcategoryid=tcat20100608101'
p323
atRp324
sS'http://im.nju.edu.cn/shownodir.aspx?categoryid=bcat2010070112&parentid=&tcategoryid=tcat2010060846'
p325
g8
((ltRp326
sg161
g8
((lp327
S'http://im.nju.edu.cn/labcenter/ShowNews.aspx?N_Id=154&NewsType=4&TypeNum=37'
p328
aS'http://im.nju.edu.cn/labcenter/ShowNews.aspx?N_Id=155&NewsType=4&TypeNum=37'
p329
aS'http://im.nju.edu.cn/labcenter/ShowNews.aspx?N_Id=156&NewsType=4&TypeNum=37'
p330
aS'http://im.nju.edu.cn/labcenter/ShowNews.aspx?N_Id=157&NewsType=4&TypeNum=37'
p331
atRp332
sS'http://im.nju.edu.cn/showtwodir.aspx?tcategoryid=tcat20100608134'
p333
g8
((lp334
S'http://im.nju.edu.cn/showtwodir.aspx?categoryid=bcat2010063032&page=1&parentid=bcat2010063032&tcategoryid=tcat20100608134'
p335
aS'http://im.nju.edu.cn/showtwodir.aspx?categoryid=bcat2013032516&parentid=bcat2010063032&tcategoryid=tcat20100608134&twocategoryid=bcat2010063032'
p336
aS'http://im.nju.edu.cn/showtwodir.aspx?categoryid=bcat2010063054&parentid=bcat2010063032&tcategoryid=tcat20100608134&twocategoryid=bcat2010063032'
p337
aS'http://im.nju.edu.cn/showtwodir.aspx?contentid=cont20100630401&parentid=bcat2010063032&tcategoryid=tcat20100608134&twocategoryid=bcat2010063032'
p338
aS'http://im.nju.edu.cn/showtwodir.aspx?contentid=cont20100630394&parentid=bcat2010063032&tcategoryid=tcat20100608134&twocategoryid=bcat2010063032'
p339
aS'http://im.nju.edu.cn/showtwodir.aspx?categoryid=bcat2010063025&parentid=bcat2010063025&tcategoryid=tcat20100608134'
p340
aS'http://im.nju.edu.cn/showtwodir.aspx?categoryid=bcat2010063081&parentid=bcat2010063032&tcategoryid=tcat20100608134&twocategoryid=bcat2010063032'
p341
aS'http://im.nju.edu.cn/showtwodir.aspx?categoryid=bcat2010063032&parentid=bcat2010063032&tcategoryid=tcat20100608134'
p342
aS'http://im.nju.edu.cn/showtwodir.aspx?categoryid=bcat2010063042&parentid=bcat2010063032&tcategoryid=tcat20100608134&twocategoryid=bcat2010063032'
p343
aS'http://im.nju.edu.cn/showtwodir.aspx?categoryid=bcat2010063072&parentid=bcat2010063032&tcategoryid=tcat20100608134&twocategoryid=bcat2010063032'
p344
aS'http://im.nju.edu.cn/showtwodir.aspx?categoryid=bcat2010063067&parentid=bcat2010063032&tcategoryid=tcat20100608134&twocategoryid=bcat2010063032'
p345
aS'http://im.nju.edu.cn/showtwodir.aspx?contentid=cont20100630223&parentid=cont20100630223&tcategoryid=tcat20100608134'
p346
atRp347
sS'http://im.nju.edu.cn/shownodir.aspx?categoryid=bcat2010062918&page=2&tcategoryid=tcat2010060846'
p348
g8
((lp349
S'http://im.nju.edu.cn/shownodir.aspx?contentid=cont2010092621&tcategoryid=tcat2010060846'
p350
aS'http://im.nju.edu.cn/shownodir.aspx?contentid=cont20100629221&tcategoryid=tcat2010060846'
p351
aS'http://im.nju.edu.cn/shownodir.aspx?contentid=cont2010092525&tcategoryid=tcat2010060846'
p352
aS'http://im.nju.edu.cn/shownodir.aspx?contentid=cont2010092516&tcategoryid=tcat2010060846'
p353
aS'http://im.nju.edu.cn/shownodir.aspx?contentid=cont2010101116&tcategoryid=tcat2010060846'
p354
aS'http://im.nju.edu.cn/shownodir.aspx?contentid=cont2010122232&tcategoryid=tcat2010060846'
p355
aS'http://im.nju.edu.cn/shownodir.aspx?contentid=cont2011101110&tcategoryid=tcat2010060846'
p356
aS'http://im.nju.edu.cn/shownodir.aspx?contentid=cont2011041322&tcategoryid=tcat2010060846'
p357
aS'http://im.nju.edu.cn/shownodir.aspx?contentid=cont2011110819&tcategoryid=tcat2010060846'
p358
aS'http://im.nju.edu.cn/shownodir.aspx?contentid=cont2011041419&tcategoryid=tcat2010060846'
p359
atRp360
sS'http://im.nju.edu.cn/labcenter/WD.aspx?Page=4&f=2'
p361
g8
((lp362
S'http://im.nju.edu.cn/labcenter/HD.aspx?q=9'
p363
aS'http://im.nju.edu.cn/labcenter/HD.aspx?q=8'
p364
aS'http://im.nju.edu.cn/labcenter/HD.aspx?q=11'
p365
aS'http://im.nju.edu.cn/labcenter/HD.aspx?q=10'
p366
aS'http://im.nju.edu.cn/labcenter/HD.aspx?q=7'
p367
aS'http://im.nju.edu.cn/labcenter/HD.aspx?q=6'
p368
atRp369
sS'http://im.nju.edu.cn/shownodir.aspx?contentid=cont2012050733&tcategoryid=tcat2010060858'
p370
g8
((lp371
S'http://im.nju.edu.cn/shownodir.aspx?categoryid=bcat2012050814&parentid=&tcategoryid=tcat2010060858'
p372
atRp373
sS'http://im.nju.edu.cn/shownodir.aspx?categoryid=tcat2010060835&page=9&tcategoryid=tcat2010060835'
p374
g8
((lp375
S'http://im.nju.edu.cn/shownodir.aspx?contentid=cont2010120918&tcategoryid=tcat2010060835'
p376
aS'http://im.nju.edu.cn/shownodir.aspx?contentid=cont2010122823&tcategoryid=tcat2010060835'
p377
aS'http://im.nju.edu.cn/shownodir.aspx?contentid=cont2010120716&tcategoryid=tcat2010060835'
p378
aS'http://im.nju.edu.cn/shownodir.aspx?categoryid=tcat2010060835&page=10&tcategoryid=tcat2010060835'
p379
aS'http://im.nju.edu.cn/shownodir.aspx?contentid=cont20100630197&tcategoryid=tcat2010060835'
p380
aS'http://im.nju.edu.cn/shownodir.aspx?contentid=cont20100630201&tcategoryid=tcat2010060835'
p381
aS'http://im.nju.edu.cn/shownodir.aspx?contentid=cont2010122513&tcategoryid=tcat2010060835'
p382
aS'http://im.nju.edu.cn/shownodir.aspx?contentid=cont2010122817&tcategoryid=tcat2010060835'
p383
aS'http://im.nju.edu.cn/shownodir.aspx?contentid=cont2010092554&tcategoryid=tcat2010060835'
p384
aS'http://im.nju.edu.cn/shownodir.aspx?contentid=cont20100630188&tcategoryid=tcat2010060835'
p385
aS'http://im.nju.edu.cn/shownodir.aspx?contentid=cont2010112316&tcategoryid=tcat2010060835'
p386
atRp387
sg86
g8
((lp388
S'http://im.nju.edu.cn/shownodir.aspx?contentid=cont20100701114&tcategoryid=tcat2010060846'
p389
aS'http://im.nju.edu.cn/shownodir.aspx?contentid=cont20100701119&tcategoryid=tcat2010060846'
p390
aS'http://im.nju.edu.cn/shownodir.aspx?contentid=cont20100701103&tcategoryid=tcat2010060846'
p391
aS'http://im.nju.edu.cn/shownodir.aspx?categoryid=bcat2010062966&parentid=&tcategoryid=tcat2010060846'
p392
aS'http://im.nju.edu.cn/shownodir.aspx?categoryid=bcat2010070112&page=1&tcategoryid=tcat2010060846'
p393
atRp394
sg337
g8
((lp395
S'http://im.nju.edu.cn/showtwodir.aspx?categoryid=bcat2010063054&page=1&parentid=bcat2010063032&tcategoryid=tcat20100608134'
p396
aS'http://im.nju.edu.cn/showtwodir.aspx?contentid=cont20100630311&parentid=bcat2010063032&tcategoryid=tcat20100608134&twocategoryid=bcat2010063054'
p397
ag24
atRp398
sS'http://im.nju.edu.cn/labcenter/WD.aspx?Page=4&f=1'
p399
g8
((lp400
S'http://im.nju.edu.cn/labcenter/HD.aspx?q=37'
p401
aS'http://im.nju.edu.cn/labcenter/HD.aspx?q=36'
p402
aS'http://im.nju.edu.cn/labcenter/HD.aspx?q=35'
p403
aS'http://im.nju.edu.cn/labcenter/HD.aspx?q=34'
p404
aS'http://im.nju.edu.cn/labcenter/HD.aspx?q=33'
p405
aS'http://im.nju.edu.cn/labcenter/HD.aspx?q=38'
p406
atRp407
sS'http://im.nju.edu.cn/showtwodir.aspx?contentid=cont20100629221&parentid=bcat2010062918&tcategoryid=tcat2010060846&twocategoryid=bcat2010062918'
p408
g8
((ltRp409
sS'http://im.nju.edu.cn/shownodir.aspx?contentid=cont2011040710&tcategoryid=tcat2010060826'
p410
g8
((ltRp411
sS'http://im.nju.edu.cn/shownodir.aspx?contentid=cont2010092525&tcategoryid=bcat2010062918'
p412
g8
((ltRp413
sS'http://im.nju.edu.cn/showonedir.aspx?contentid=cont20100627133&parentid=bcat2010062436&tcategoryid=tcat20100608155'
p414
g8
((ltRp415
sS'http://im.nju.edu.cn/shownodir.aspx?contentid=cont2010062598&tcategoryid=tcat2010060835'
p416
g8
((ltRp417
sS'http://im.nju.edu.cn/shownodir.aspx?categoryid=bcat2011041315&page=1&tcategoryid=tcat2010060846'
p418
g8
((ltRp419
sS'http://im.nju.edu.cn/shownodir.aspx?categoryid=tcat2010060835&page=17&tcategoryid=tcat2010060835'
p420
g8
((lp421
S'http://im.nju.edu.cn/shownodir.aspx?contentid=cont20100624323&tcategoryid=tcat2010060835'
p422
aS'http://im.nju.edu.cn/shownodir.aspx?contentid=cont20100624295&tcategoryid=tcat2010060835'
p423
aS'http://im.nju.edu.cn/shownodir.aspx?contentid=cont20100624285&tcategoryid=tcat2010060835'
p424
aS'http://im.nju.edu.cn/shownodir.aspx?contentid=cont20100624262&tcategoryid=tcat2010060835'
p425
aS'http://im.nju.edu.cn/shownodir.aspx?contentid=cont20100624307&tcategoryid=tcat2010060835'
p426
aS'http://im.nju.edu.cn/shownodir.aspx?contentid=cont20100624335&tcategoryid=tcat2010060835'
p427
aS'http://im.nju.edu.cn/shownodir.aspx?categoryid=tcat2010060835&page=16&tcategoryid=tcat2010060835'
p428
aS'http://im.nju.edu.cn/shownodir.aspx?contentid=cont20100624244&tcategoryid=tcat2010060835'
p429
aS'http://im.nju.edu.cn/shownodir.aspx?contentid=cont20100624315&tcategoryid=tcat2010060835'
p430
aS'http://im.nju.edu.cn/shownodir.aspx?contentid=cont20100624259&tcategoryid=tcat2010060835'
p431
aS'http://im.nju.edu.cn/shownodir.aspx?contentid=cont20100624278&tcategoryid=tcat2010060835'
p432
atRp433
sg303
g8
((lp434
g305
aS'http://im.nju.edu.cn/labcenter/UserLogin.aspx'
p435
aS'http://im.nju.edu.cn/labcenter/HD.aspx?q=25'
p436
aS'http://im.nju.edu.cn/labcenter/HD.aspx?q=26'
p437
aS'http://im.nju.edu.cn/labcenter/HD.aspx?q=27'
p438
aS'http://im.nju.edu.cn/labcenter/WD.aspx?f=1'
p439
aS'http://im.nju.edu.cn/labcenter/WD.aspx?Page=5&f=2'
p440
aS'http://im.nju.edu.cn/labcenter/WD.aspx?f=2'
p441
aS'http://im.nju.edu.cn/labcenter/HD.aspx?q=28'
p442
aS'http://im.nju.edu.cn/labcenter/HD.aspx?q=29'
p443
atRp444
sS'http://im.nju.edu.cn/shownodir.aspx?categoryid=bcat2010062925&page=1&tcategoryid=tcat2010060846'
p445
g8
((ltRp446
sg18
g8
((ltRp447
sS'http://im.nju.edu.cn/shownodir.aspx?tcategoryid=tcat2010060846'
p448
g8
((lp449
S'http://im.nju.edu.cn/shownodir.aspx?categoryid=bcat2010090115&tcategoryid=tcat2010060846'
p450
aS'http://im.nju.edu.cn/shownodir.aspx?categoryid=bcat2010062931&tcategoryid=tcat2010060846'
p451
aS'http://im.nju.edu.cn/shownodir.aspx?categoryid=bcat2010062925&tcategoryid=tcat2010060846'
p452
aS'http://im.nju.edu.cn/shownodir.aspx?categoryid=bcat2010062941&tcategoryid=tcat2010060846'
p453
ag83
aS'http://im.nju.edu.cn/shownodir.aspx?categoryid=tcat2010060846&page=1&tcategoryid=tcat2010060846'
p454
aS'http://im.nju.edu.cn/shownodir.aspx?categoryid=bcat2010062953&tcategoryid=tcat2010060846'
p455
atRp456
sg34
g8
((ltRp457
sS'http://im.nju.edu.cn/shownodir.aspx?categoryid=bcat2012050836&tcategoryid=tcat2010060858'
p458
g8
((lp459
S'http://im.nju.edu.cn/shownodir.aspx?categoryid=bcat2012050836&page=1&tcategoryid=tcat2010060858'
p460
aS'http://im.nju.edu.cn/shownodir.aspx?contentid=cont2012051142&tcategoryid=tcat2010060858'
p461
atRp462
sg39
g8
((lp463
S'http://im.nju.edu.cn/labcenter/ShowNews.aspx?N_Id=127&NewsType=10&TypeNum=10'
p464
aS'http://im.nju.edu.cn/labcenter/Common.aspx?NewsType=10&Page=1&TypeNum='
p465
atRp466
sS'http://im.nju.edu.cn/shownodir.aspx?categoryid=bcat2010062918&tcategoryid=tcat2010060846'
p467
g8
((lp468
S'http://im.nju.edu.cn/shownodir.aspx?contentid=cont2012070417&tcategoryid=tcat2010060846'
p469
aS'http://im.nju.edu.cn/shownodir.aspx?contentid=cont2014040417&tcategoryid=tcat2010060846'
p470
aS'http://im.nju.edu.cn/shownodir.aspx?contentid=cont2013031314&tcategoryid=tcat2010060846'
p471
aS'http://im.nju.edu.cn/shownodir.aspx?contentid=cont2014031813&tcategoryid=tcat2010060846'
p472
aS'http://im.nju.edu.cn/shownodir.aspx?categoryid=bcat2010062918&page=4&tcategoryid=tcat2010060846'
p473
aS'http://im.nju.edu.cn/shownodir.aspx?contentid=cont2012072011&tcategoryid=tcat2010060846'
p474
ag348
aS'http://im.nju.edu.cn/shownodir.aspx?contentid=cont2013031516&tcategoryid=tcat2010060846'
p475
aS'http://im.nju.edu.cn/shownodir.aspx?contentid=cont2013032617&tcategoryid=tcat2010060846'
p476
aS'http://im.nju.edu.cn/shownodir.aspx?contentid=cont2012062816&tcategoryid=tcat2010060846'
p477
aS'http://im.nju.edu.cn/shownodir.aspx?categoryid=bcat2010062918&page=1&tcategoryid=tcat2010060846'
p478
ag448
aS'http://im.nju.edu.cn/shownodir.aspx?contentid=cont2013040312&tcategoryid=tcat2010060846'
p479
aS'http://im.nju.edu.cn/shownodir.aspx?contentid=cont2014031211&tcategoryid=tcat2010060846'
p480
atRp481
sS'http://im.nju.edu.cn/shownodir.aspx?categoryid=bcat2010062918&page=4&tcategoryid=bcat2010062918'
p482
g8
((lp483
S'http://im.nju.edu.cn/shownodir.aspx?contentid=cont20100629213&tcategoryid=bcat2010062918'
p484
aS'http://im.nju.edu.cn/shownodir.aspx?contentid=cont2010062957&tcategoryid=bcat2010062918'
p485
aS'http://im.nju.edu.cn/shownodir.aspx?contentid=cont20100629246&tcategoryid=bcat2010062918'
p486
aS'http://im.nju.edu.cn/shownodir.aspx?contentid=cont2010062970&tcategoryid=bcat2010062918'
p487
aS'http://im.nju.edu.cn/shownodir.aspx?categoryid=bcat2010062918&page=3&tcategoryid=bcat2010062918'
p488
aS'http://im.nju.edu.cn/shownodir.aspx?contentid=cont2010062988&tcategoryid=bcat2010062918'
p489
atRp490
sg451
g8
((lp491
S'http://im.nju.edu.cn/shownodir.aspx?categoryid=bcat2010062931&page=1&tcategoryid=tcat2010060846'
p492
aS'http://im.nju.edu.cn/shownodir.aspx?contentid=cont20100629276&tcategoryid=tcat2010060846'
p493
aS'http://im.nju.edu.cn/shownodir.aspx?contentid=cont20100629338&tcategoryid=tcat2010060846'
p494
aS'http://im.nju.edu.cn/shownodir.aspx?contentid=cont20100629321&tcategoryid=tcat2010060846'
p495
aS'http://im.nju.edu.cn/shownodir.aspx?contentid=cont20100629347&tcategoryid=tcat2010060846'
p496
atRp497
sg473
g8
((lp498
S'http://im.nju.edu.cn/shownodir.aspx?contentid=cont20100629246&tcategoryid=tcat2010060846'
p499
aS'http://im.nju.edu.cn/shownodir.aspx?categoryid=bcat2010062918&page=3&tcategoryid=tcat2010060846'
p500
aS'http://im.nju.edu.cn/shownodir.aspx?contentid=cont2010062957&tcategoryid=tcat2010060846'
p501
aS'http://im.nju.edu.cn/shownodir.aspx?contentid=cont20100629213&tcategoryid=tcat2010060846'
p502
aS'http://im.nju.edu.cn/shownodir.aspx?contentid=cont2010062970&tcategoryid=tcat2010060846'
p503
aS'http://im.nju.edu.cn/shownodir.aspx?contentid=cont2010062988&tcategoryid=tcat2010060846'
p504
atRp505
sS'http://im.nju.edu.cn/labcenter/Common.aspx?NewsType=3&TypeNum=27'
p506
g8
((lp507
S'http://im.nju.edu.cn/labcenter/Common.aspx?NewsType=3&Page=2&TypeNum=27'
p508
atRp509
sg341
g8
((lp510
S'http://im.nju.edu.cn/showtwodir.aspx?contentid=cont20100630375&parentid=bcat2010063032&tcategoryid=tcat20100608134&twocategoryid=bcat2010063081'
p511
aS'http://im.nju.edu.cn/showtwodir.aspx?contentid=cont20100630385&parentid=bcat2010063032&tcategoryid=tcat20100608134&twocategoryid=bcat2010063081'
p512
aS'http://im.nju.edu.cn/showtwodir.aspx?categoryid=bcat2010063081&page=1&parentid=bcat2010063032&tcategoryid=tcat20100608134'
p513
atRp514
sS'http://im.nju.edu.cn/shownodir.aspx?contentid=cont2012042614&tcategoryid=tcat2010060826'
p515
g8
((ltRp516
sg85
g8
((lp517
g418
aS'http://im.nju.edu.cn/shownodir.aspx?contentid=cont2011041321&tcategoryid=tcat2010060846'
p518
aS'http://im.nju.edu.cn/shownodir.aspx?contentid=cont2011041421&tcategoryid=tcat2010060846'
p519
atRp520
sS'http://im.nju.edu.cn/showonedir.aspx?categoryid=bcat2010062718&parentid=bcat2010062436&tcategoryid=tcat20100608155'
p521
g8
((lp522
S'http://im.nju.edu.cn/showonedir.aspx?categoryid=bcat2010062718&page=2&parentid=bcat2010062436&tcategoryid=tcat20100608155'
p523
aS'http://im.nju.edu.cn/showonedir.aspx?categoryid=bcat2010062718&page=4&parentid=bcat2010062436&tcategoryid=tcat20100608155'
p524
aS'http://im.nju.edu.cn/showonedir.aspx?categoryid=bcat2010062718&page=1&parentid=bcat2010062436&tcategoryid=tcat20100608155'
p525
atRp526
sg2
g8
((lp527
S'http://im.nju.edu.cn/shownodir.aspx?contentid=cont2014031211&parentid=bcat2010062918&tcategoryid=bcat2010062918'
p528
aS'http://im.nju.edu.cn/shownodir.aspx?contentid=cont2013040312&parentid=bcat2010062918&tcategoryid=bcat2010062918'
p529
aS'http://im.nju.edu.cn/shownodir.aspx?contentid=cont2014121310&parentid=tcat2010060876&tcategoryid=tcat2010060876'
p530
aS'http://im.nju.edu.cn/shownodir.aspx?contentid=cont2014121515&parentid=tcat2010060826&tcategoryid=tcat2010060826'
p531
aS'http://im.nju.edu.cn/shownodir.aspx?contentid=cont2014052112&parentid=tcat2010060876&tcategoryid=tcat2010060876'
p532
aS'http://im.nju.edu.cn/shownodir.aspx?contentid=cont2014042519&parentid=tcat2010060858&tcategoryid=tcat2010060858'
p533
ag319
aS'http://im.nju.edu.cn/shownodir.aspx?contentid=cont2014102111&parentid=tcat2010060876&tcategoryid=tcat2010060876'
p534
ag94
ag105
aS'http://im.nju.edu.cn/shownodir.aspx?contentid=cont2014031813&parentid=bcat2010062918&tcategoryid=bcat2010062918'
p535
ag467
aS'http://im.nju.edu.cn/shownodir.aspx?contentid=cont2014070219&parentid=tcat2010060858&tcategoryid=tcat2010060858'
p536
aS'http://im.nju.edu.cn/shownodir.aspx?contentid=cont20100629291&parentid=tcat20100608165&tcategoryid=tcat20100608165'
p537
aS'http://im.nju.edu.cn/shownodir.aspx?contentid=cont2015031311&parentid=tcat2010060826&tcategoryid=tcat2010060826'
p538
aS'http://im.nju.edu.cn/shownodir.aspx?contentid=cont2014103115&parentid=tcat2010060826&tcategoryid=tcat2010060826'
p539
aS'http://im.nju.edu.cn/shownodir.aspx?contentid=cont2014053013&parentid=tcat2010060876&tcategoryid=tcat2010060876'
p540
ag214
aS'http://im.nju.edu.cn'
p541
aS'http://im.nju.edu.cn/shownodir.aspx?contentid=cont2013032617&parentid=bcat2010062918&tcategoryid=bcat2010062918'
p542
aS'http://im.nju.edu.cn/shownodir.aspx?contentid=cont2014102711&parentid=tcat2010060876&tcategoryid=tcat2010060876'
p543
aS'http://im.nju.edu.cn/shownodir.aspx?contentid=cont2014122916&parentid=tcat2010060876&tcategoryid=tcat2010060876'
p544
aS'http://im.nju.edu.cn/shownodir.aspx?contentid=cont2014060625&parentid=tcat2010060835&tcategoryid=tcat2010060835'
p545
aS'http://im.nju.edu.cn/shownodir.aspx?contentid=cont2014012419&parentid=tcat2010060858&tcategoryid=tcat2010060858'
p546
aS'http://im.nju.edu.cn/shownodir.aspx?contentid=cont2014101111&parentid=tcat2010060876&tcategoryid=tcat2010060876'
p547
aS'http://im.nju.edu.cn/shownodir.aspx?contentid=cont2010070834&parentid=tcat2010060876&tcategoryid=tcat2010060876'
p548
aS'http://im.nju.edu.cn/shownodir.aspx?contentid=cont2014093027&parentid=tcat2010060876&tcategoryid=tcat2010060876'
p549
aS'http://im.nju.edu.cn/shownodir.aspx?contentid=cont2014120314&parentid=tcat2010060826&tcategoryid=tcat2010060826'
p550
aS'http://im.nju.edu.cn/shownodir.aspx?tcategoryid=tcat2010060876'
p551
aS'http://im.nju.edu.cn/shownodir.aspx?contentid=cont2013042329&parentid=tcat2010060858&tcategoryid=tca'
p552
aS'http://im.nju.edu.cn/shownodir.aspx?contentid=cont2014123012&parentid=tcat2010060826&tcategoryid=tcat2010060826'
p553
ag149
aS'http://im.nju.edu.cn/showonedir.aspx?tcategoryid=tcat20100608155'
p554
aS'http://im.nju.edu.cn/shownodir.aspx?contentid=cont2014121216&parentid=tcat2010060826&tcategoryid=tcat2010060826'
p555
aS'http://im.nju.edu.cn/shownodir.aspx?contentid=cont2011101312&parentid=tcat2010060876&tcategoryid=tcat2010060876'
p556
aS'http://im.nju.edu.cn/labcenter'
p557
aS'http://im.nju.edu.cn/shownodir.aspx?contentid=cont2014111016&parentid=tcat2010060835&tcategoryid=tcat2010060835'
p558
aS'http://im.nju.edu.cn/shownodir.aspx?tcategoryid=tcat2010060858'
p559
aS'http://im.nju.edu.cn/shownodir.aspx?contentid=cont2013121612&parentid=tcat2010060858&tcategoryid=tcat2010060858'
p560
aS'http://im.nju.edu.cn/shownodir.aspx?contentid=cont2014101216&parentid=tcat2010060835&tcategoryid=tcat2010060835'
p561
aS'http://im.nju.edu.cn/shownodir.aspx?categoryid=tcat2010060826&tcategoryid=tcat2010060826'
p562
aS'http://im.nju.edu.cn/shownodir.aspx?contentid=cont2014041011&parentid=tcat2010060858&tcategoryid=tcat2010060858'
p563
ag333
aS'http://im.nju.edu.cn/shownodir.aspx?contentid=cont2014040417&parentid=bcat2010062918&tcategoryid=bcat2010062918'
p564
aS'http://im.nju.edu.cn/shownodir.aspx?contentid=cont2014061420&parentid=tcat2010060835&tcategoryid=tcat2010060835'
p565
aS'http://im.nju.edu.cn/shownodir.aspx?contentid=cont2014070227&parentid=tcat2010060876&tcategoryid=tcat2010060876'
p566
aS'http://im.nju.edu.cn/shownodir.aspx?contentid=cont2014043013&parentid=tcat2010060858&tcategoryid=tcat2010060858'
p567
aS'http://im.nju.edu.cn/shownodir.aspx?categoryid=tcat2010060835&tcategoryid=tcat2010060835'
p568
aS'http://im.nju.edu.cn/shownodir.aspx?contentid=cont2013031516&parentid=bcat2010062918&tcategoryid=bcat2010062918'
p569
aS'http://im.nju.edu.cn/shownodir.aspx?contentid=cont2014061413&parentid=tcat2010060835&tcategoryid=tcat2010060835'
p570
aS'http://im.nju.edu.cn/showtwodir.aspx?tcategoryid=tcat20100608111'
p571
atRp572
sg542
g8
((lp573
S'http://im.nju.edu.cn/shownodir.aspx?tcategoryid=bcat2010062918'
p574
atRp575
sS'http://im.nju.edu.cn/shownodir.aspx?categoryid=tcat2010060835&page=18&tcategoryid=tcat2010060835'
p576
g8
((lp577
S'http://im.nju.edu.cn/shownodir.aspx?contentid=cont20100624157&tcategoryid=tcat2010060835'
p578
aS'http://im.nju.edu.cn/shownodir.aspx?contentid=cont20100624174&tcategoryid=tcat2010060835'
p579
ag420
aS'http://im.nju.edu.cn/shownodir.aspx?contentid=cont20100624223&tcategoryid=tcat2010060835'
p580
aS'http://im.nju.edu.cn/shownodir.aspx?contentid=cont20100624189&tcategoryid=tcat2010060835'
p581
aS'http://im.nju.edu.cn/shownodir.aspx?contentid=cont20100624160&tcategoryid=tcat2010060835'
p582
aS'http://im.nju.edu.cn/shownodir.aspx?contentid=cont20100624197&tcategoryid=tcat2010060835'
p583
aS'http://im.nju.edu.cn/shownodir.aspx?contentid=cont20100624238&tcategoryid=tcat2010060835'
p584
aS'http://im.nju.edu.cn/shownodir.aspx?contentid=cont20100624204&tcategoryid=tcat2010060835'
p585
aS'http://im.nju.edu.cn/shownodir.aspx?contentid=cont20100624146&tcategoryid=tcat2010060835'
p586
aS'http://im.nju.edu.cn/shownodir.aspx?contentid=cont20100624210&tcategoryid=tcat2010060835'
p587
atRp588
sS'http://im.nju.edu.cn/shownodir.aspx?categoryid=tcat2010060826&page=7&tcategoryid=tcat2010060826'
p589
g8
((lp590
S'http://im.nju.edu.cn/shownodir.aspx?contentid=cont20100626183&tcategoryid=tcat2010060826'
p591
aS'http://im.nju.edu.cn/shownodir.aspx?contentid=cont2010062685&tcategoryid=tcat2010060826'
p592
aS'http://im.nju.edu.cn/shownodir.aspx?contentid=cont20100626196&tcategoryid=tcat2010060826'
p593
aS'http://im.nju.edu.cn/shownodir.aspx?contentid=cont20100627122&tcategoryid=tcat2010060826'
p594
aS'http://im.nju.edu.cn/shownodir.aspx?contentid=cont20100626144&tcategoryid=tcat2010060826'
p595
aS'http://im.nju.edu.cn/shownodir.aspx?contentid=cont20100627168&tcategoryid=tcat2010060826'
p596
aS'http://im.nju.edu.cn/shownodir.aspx?categoryid=tcat2010060826&page=6&tcategoryid=tcat2010060826'
p597
aS'http://im.nju.edu.cn/shownodir.aspx?contentid=cont20100626218&tcategoryid=tcat2010060826'
p598
aS'http://im.nju.edu.cn/shownodir.aspx?contentid=cont20100626201&tcategoryid=tcat2010060826'
p599
aS'http://im.nju.edu.cn/shownodir.aspx?contentid=cont20100626176&tcategoryid=tcat2010060826'
p600
aS'http://im.nju.edu.cn/shownodir.aspx?contentid=cont20100626166&tcategoryid=tcat2010060826'
p601
atRp602
sg167
g8
((ltRp603
sg276
g8
((lp604
S'http://im.nju.edu.cn/labcenter/Common.aspx?NewsType=1&TypeNum=19'
p605
aS'http://im.nju.edu.cn/labcenter/Common.aspx?NewsType=1&TypeNum=21'
p606
aS'http://im.nju.edu.cn/labcenter/Common.aspx?NewsType=1&TypeNum=22'
p607
aS'http://im.nju.edu.cn/labcenter/Common.aspx?NewsType=1&TypeNum=17'
p608
aS'http://im.nju.edu.cn/labcenter/Common.aspx?NewsType=1&TypeNum=20'
p609
aS'http://im.nju.edu.cn/labcenter/Common.aspx?NewsType=1&TypeNum=18'
p610
atRp611
sg597
g8
((lp612
S'http://im.nju.edu.cn/shownodir.aspx?contentid=cont20100626404&tcategoryid=tcat2010060826'
p613
aS'http://im.nju.edu.cn/shownodir.aspx?contentid=cont2010062673&tcategoryid=tcat2010060826'
p614
aS'http://im.nju.edu.cn/shownodir.aspx?contentid=cont20100626355&tcategoryid=tcat2010060826'
p615
aS'http://im.nju.edu.cn/shownodir.aspx?contentid=cont20100626414&tcategoryid=tcat2010060826'
p616
aS'http://im.nju.edu.cn/shownodir.aspx?contentid=cont20100626529&tcategoryid=tcat2010060826'
p617
aS'http://im.nju.edu.cn/shownodir.aspx?contentid=cont2011032421&tcategoryid=tcat2010060826'
p618
aS'http://im.nju.edu.cn/shownodir.aspx?contentid=cont20100626363&tcategoryid=tcat2010060826'
p619
aS'http://im.nju.edu.cn/shownodir.aspx?categoryid=tcat2010060826&page=5&tcategoryid=tcat2010060826'
p620
aS'http://im.nju.edu.cn/shownodir.aspx?contentid=cont2011022414&tcategoryid=tcat2010060826'
p621
aS'http://im.nju.edu.cn/shownodir.aspx?contentid=cont2011031012&tcategoryid=tcat2010060826'
p622
aS'http://im.nju.edu.cn/shownodir.aspx?contentid=cont2010110112&tcategoryid=tcat2010060826'
p623
atRp624
sg460
g8
((ltRp625
sg559
g8
((lp626
S'http://im.nju.edu.cn/shownodir.aspx?contentid=cont2014070219&tcategoryid=tcat2010060858'
p627
aS'http://im.nju.edu.cn/shownodir.aspx?contentid=cont2014012419&tcategoryid=tcat2010060858'
p628
aS'http://im.nju.edu.cn/shownodir.aspx?contentid=cont2013121612&tcategoryid=tcat2010060858'
p629
aS'http://im.nju.edu.cn/shownodir.aspx?contentid=cont2013121216&tcategoryid=tcat2010060858'
p630
aS'http://im.nju.edu.cn/shownodir.aspx?categoryid=tcat2010060858&page=2&tcategoryid=tcat2010060858'
p631
aS'http://im.nju.edu.cn/shownodir.aspx?contentid=cont2014041011&tcategoryid=tcat2010060858'
p632
aS'http://im.nju.edu.cn/shownodir.aspx?contentid=cont2013103038&tcategoryid=tcat2010060858'
p633
aS'http://im.nju.edu.cn/shownodir.aspx?contentid=cont2014042519&tcategoryid=tcat2010060858'
p634
aS'http://im.nju.edu.cn/shownodir.aspx?contentid=cont2014043013&tcategoryid=tcat2010060858'
p635
aS'http://im.nju.edu.cn/shownodir.aspx?contentid=cont2013112428&tcategoryid=tcat2010060858'
p636
aS'http://im.nju.edu.cn/shownodir.aspx?contentid=cont2013112438&tcategoryid=tcat2010060858'
p637
aS'http://im.nju.edu.cn/shownodir.aspx?categoryid=tcat2010060858&page=1&tcategoryid=tcat2010060858'
p638
atRp639
sg405
g8
((ltRp640
sg631
g8
((lp641
g458
aS'http://im.nju.edu.cn/shownodir.aspx?categoryid=bcat2012050843&tcategoryid=tcat2010060858'
p642
aS'http://im.nju.edu.cn/shownodir.aspx?contentid=cont2013103026&tcategoryid=tcat2010060858'
p643
aS'http://im.nju.edu.cn/shownodir.aspx?contentid=cont2013042331&tcategoryid=tcat2010060858'
p644
aS'http://im.nju.edu.cn/shownodir.aspx?contentid=cont2013041646&tcategoryid=tcat2010060858'
p645
aS'http://im.nju.edu.cn/shownodir.aspx?categoryid=bcat2012050814&tcategoryid=tcat2010060858'
p646
aS'http://im.nju.edu.cn/shownodir.aspx?contentid=cont2013091519&tcategoryid=tcat2010060858'
p647
aS'http://im.nju.edu.cn/shownodir.aspx?categoryid=bcat2012050852&tcategoryid=tcat2010060858'
p648
aS'http://im.nju.edu.cn/shownodir.aspx?contentid=cont2013042329&tcategoryid=tcat2010060858'
p649
aS'http://im.nju.edu.cn/shownodir.aspx?categoryid=bcat2012050828&tcategoryid=tcat2010060858'
p650
atRp651
sg552
g8
((lp652
S'http://im.nju.edu.cn/shownodir.aspx?tcategoryid=tca'
p653
atRp654
sS'http://im.nju.edu.cn/shownodir.aspx?contentid=cont20100627446&tcategoryid=tcat2010060835'
p655
g8
((ltRp656
sS'http://im.nju.edu.cn/shownodir.aspx?categoryid=bcat2012050843&parentid=&tcategoryid=tcat2010060858'
p657
g8
((ltRp658
sg554
g8
((lp659
S'http://im.nju.edu.cn/showonedir.aspx?categoryid=bcat2010062426&parentid=bcat2010062426&tcategoryid=tcat20100608155'
p660
aS'http://im.nju.edu.cn/showonedir.aspx?categoryid=bcat2010062436&page=1&parentid=bcat2010062436&tcategoryid=tcat20100608155'
p661
aS'http://im.nju.edu.cn/showonedir.aspx?categoryid=bcat2010062410&parentid=bcat2010062436&tcategoryid=tcat20100608155'
p662
ag46
aS'http://im.nju.edu.cn/showonedir.aspx?categoryid=bcat2010062436&parentid=bcat2010062436&tcategoryid=tcat20100608155'
p663
atRp664
sg289
g8
((ltRp665
sS'http://im.nju.edu.cn/shownodir.aspx?categoryid=bcat2012050843&page=1&tcategoryid=tcat2010060858'
p666
g8
((ltRp667
sg571
g8
((lp668
S'http://im.nju.edu.cn/showtwodir.aspx?categoryid=bcat2010070163&parentid=bcat2010070163&tcategoryid=tcat20100608111'
p669
aS'http://im.nju.edu.cn/showtwodir.aspx?categoryid=bcat2010070171&parentid=bcat2010070171&tcategoryid=tcat20100608111'
p670
ag128
atRp671
sS'http://im.nju.edu.cn/shownodir.aspx?categoryid=tcat2010060826&page=3&tcategoryid=tcat2010060826'
p672
g8
((lp673
S'http://im.nju.edu.cn/shownodir.aspx?contentid=cont2013052214&tcategoryid=tcat2010060826'
p674
aS'http://im.nju.edu.cn/shownodir.aspx?contentid=cont2013050724&tcategoryid=tcat2010060826'
p675
aS'http://im.nju.edu.cn/shownodir.aspx?contentid=cont2013093011&tcategoryid=tcat2010060826'
p676
aS'http://im.nju.edu.cn/shownodir.aspx?contentid=cont2013092536&tcategoryid=tcat2010060826'
p677
aS'http://im.nju.edu.cn/shownodir.aspx?contentid=cont2013100713&tcategoryid=tcat2010060826'
p678
aS'http://im.nju.edu.cn/shownodir.aspx?contentid=cont2013102151&tcategoryid=tcat2010060826'
p679
aS'http://im.nju.edu.cn/shownodir.aspx?contentid=cont2013041822&tcategoryid=tcat2010060826'
p680
aS'http://im.nju.edu.cn/shownodir.aspx?contentid=cont2013102144&tcategoryid=tcat2010060826'
p681
aS'http://im.nju.edu.cn/shownodir.aspx?contentid=cont2013092528&tcategoryid=tcat2010060826'
p682
aS'http://im.nju.edu.cn/shownodir.aspx?contentid=cont2013092541&tcategoryid=tcat2010060826'
p683
atRp684
sS'http://im.nju.edu.cn/shownodir.aspx?categoryid=bcat2012050852&parentid=&tcategoryid=tcat2010060858'
p685
g8
((ltRp686
sS'http://im.nju.edu.cn/shownodir.aspx?contentid=cont2011060934&tcategoryid=tcat2010060835'
p687
g8
((ltRp688
sg562
g8
((lp689
S'http://im.nju.edu.cn/shownodir.aspx?contentid=cont2014121216&tcategoryid=tcat2010060826'
p690
aS'http://im.nju.edu.cn/shownodir.aspx?contentid=cont2014103115&tcategoryid=tcat2010060826'
p691
aS'http://im.nju.edu.cn/shownodir.aspx?contentid=cont2014092618&tcategoryid=tcat2010060826'
p692
aS'http://im.nju.edu.cn/shownodir.aspx?tcategoryid=tcat2010060826'
p693
aS'http://im.nju.edu.cn/shownodir.aspx?contentid=cont2014120314&tcategoryid=tcat2010060826'
p694
aS'http://im.nju.edu.cn/shownodir.aspx?contentid=cont2014101711&tcategoryid=tcat2010060826'
p695
aS'http://im.nju.edu.cn/shownodir.aspx?contentid=cont2015031311&tcategoryid=tcat2010060826'
p696
ag44
aS'http://im.nju.edu.cn/shownodir.aspx?contentid=cont2014093015&tcategoryid=tcat2010060826'
p697
aS'http://im.nju.edu.cn/shownodir.aspx?categoryid=tcat2010060826&page=2&tcategoryid=tcat2010060826'
p698
aS'http://im.nju.edu.cn/shownodir.aspx?contentid=cont2014100913&tcategoryid=tcat2010060826'
p699
aS'http://im.nju.edu.cn/shownodir.aspx?categoryid=tcat2010060826&page=1&tcategoryid=tcat2010060826'
p700
aS'http://im.nju.edu.cn/shownodir.aspx?contentid=cont2014123012&tcategoryid=tcat2010060826'
p701
aS'http://im.nju.edu.cn/shownodir.aspx?categoryid=tcat2010060826&page=9&tcategoryid=tcat2010060826'
p702
atRp703
sS'http://im.nju.edu.cn/showtwodir.aspx?categoryid=bcat2010070112&parentid=bcat2010062966&tcategoryid=tcat2010060846'
p704
g8
((lp705
S'http://im.nju.edu.cn/showtwodir.aspx?contentid=cont20100701119&parentid=bcat2010062966&tcategoryid=tcat2010060846&twocategoryid=bcat2010070112'
p706
aS'http://im.nju.edu.cn/showtwodir.aspx?contentid=cont20100701114&parentid=bcat2010062966&tcategoryid=tcat2010060846&twocategoryid=bcat2010070112'
p707
aS'http://im.nju.edu.cn/showtwodir.aspx?categoryid=bcat2010070112&page=1&parentid=bcat2010062966&tcategoryid=tcat2010060846'
p708
aS'http://im.nju.edu.cn/showtwodir.aspx?contentid=cont20100701103&parentid=bcat2010062966&tcategoryid=tcat2010060846&twocategoryid=bcat2010070112'
p709
atRp710
sS'http://im.nju.edu.cn/shownodir.aspx?contentid=cont2012051157&tcategoryid=tcat2010060858'
p711
g8
((lp712
g657
atRp713
sg661
g8
((ltRp714
sg646
g8
((lp715
S'http://im.nju.edu.cn/shownodir.aspx?contentid=cont2012050915&tcategoryid=tcat2010060858'
p716
ag370
aS'http://im.nju.edu.cn/shownodir.aspx?categoryid=bcat2012050814&page=1&tcategoryid=tcat2010060858'
p717
atRp718
sg488
g8
((lp719
S'http://im.nju.edu.cn/shownodir.aspx?contentid=cont20100629156&tcategoryid=bcat2010062918'
p720
aS'http://im.nju.edu.cn/shownodir.aspx?contentid=cont20100629205&tcategoryid=bcat2010062918'
p721
aS'http://im.nju.edu.cn/shownodir.aspx?contentid=cont20100629145&tcategoryid=bcat2010062918'
p722
aS'http://im.nju.edu.cn/shownodir.aspx?contentid=cont20100629102&tcategoryid=bcat2010062918'
p723
aS'http://im.nju.edu.cn/shownodir.aspx?contentid=cont2010062963&tcategoryid=bcat2010062918'
p724
aS'http://im.nju.edu.cn/shownodir.aspx?contentid=cont20100629238&tcategoryid=bcat2010062918'
p725
aS'http://im.nju.edu.cn/shownodir.aspx?contentid=cont2010062994&tcategoryid=bcat2010062918'
p726
aS'http://im.nju.edu.cn/shownodir.aspx?contentid=cont20100629196&tcategoryid=bcat2010062918'
p727
aS'http://im.nju.edu.cn/shownodir.aspx?contentid=cont20100629128&tcategoryid=bcat2010062918'
p728
aS'http://im.nju.edu.cn/shownodir.aspx?contentid=cont20100629110&tcategoryid=bcat2010062918'
p729
atRp730
sg345
g8
((lp731
S'http://im.nju.edu.cn/showtwodir.aspx?contentid=cont20100630360&parentid=bcat2010063032&tcategoryid=tcat20100608134&twocategoryid=bcat2010063067'
p732
aS'http://im.nju.edu.cn/showtwodir.aspx?categoryid=bcat2010063067&page=1&parentid=bcat2010063032&tcategoryid=tcat20100608134'
p733
aS'http://im.nju.edu.cn/showtwodir.aspx?contentid=cont20100630352&parentid=bcat2010063032&tcategoryid=tcat20100608134&twocategoryid=bcat2010063067'
p734
atRp735
sS'http://im.nju.edu.cn/labcenter/ShowNews.aspx?N_Id=78&NewsType=3&TypeNum=27'
p736
g8
((ltRp737
sg469
g8
((lp738
g130
atRp739
sg513
g8
((ltRp740
sS'http://im.nju.edu.cn/shownodir.aspx?contentid=cont2012050836&tcategoryid=tcat2010060858'
p741
g8
((lp742
S'http://im.nju.edu.cn/shownodir.aspx?categoryid=bcat2012050828&parentid=&tcategoryid=tcat2010060858'
p743
atRp744
sS'http://im.nju.edu.cn/shownodir.aspx?categoryid=tcat2010060826&page=8&tcategoryid=tcat2010060826'
p745
g8
((lp746
g589
aS'http://im.nju.edu.cn/shownodir.aspx?contentid=cont20100626382&tcategoryid=tcat2010060826'
p747
aS'http://im.nju.edu.cn/shownodir.aspx?contentid=cont20100626267&tcategoryid=tcat2010060826'
p748
aS'http://im.nju.edu.cn/shownodir.aspx?contentid=cont20100626248&tcategoryid=tcat2010060826'
p749
aS'http://im.nju.edu.cn/shownodir.aspx?contentid=cont20100627192&tcategoryid=tcat2010060826'
p750
aS'http://im.nju.edu.cn/shownodir.aspx?contentid=cont20100626232&tcategoryid=tcat2010060826'
p751
aS'http://im.nju.edu.cn/shownodir.aspx?contentid=cont20100626226&tcategoryid=tcat2010060826'
p752
aS'http://im.nju.edu.cn/shownodir.aspx?contentid=cont20100626373&tcategoryid=tcat2010060826'
p753
aS'http://im.nju.edu.cn/shownodir.aspx?contentid=cont20100626390&tcategoryid=tcat2010060826'
p754
aS'http://im.nju.edu.cn/shownodir.aspx?contentid=cont20100626254&tcategoryid=tcat2010060826'
p755
aS'http://im.nju.edu.cn/shownodir.aspx?contentid=cont20100626118&tcategoryid=tcat2010060826'
p756
atRp757
sg574
g8
((lp758
S'http://im.nju.edu.cn/shownodir.aspx?categoryid=bcat2010062918&page=2&tcategoryid=bcat2010062918'
p759
aS'http://im.nju.edu.cn/shownodir.aspx?categoryid=bcat2010062918&page=1&tcategoryid=bcat2010062918'
p760
ag482
aS'http://im.nju.edu.cn/shownodir.aspx?contentid=cont2012062816&tcategoryid=bcat2010062918'
p761
aS'http://im.nju.edu.cn/shownodir.aspx?contentid=cont2014040417&tcategoryid=bcat2010062918'
p762
aS'http://im.nju.edu.cn/shownodir.aspx?contentid=cont2012070417&tcategoryid=bcat2010062918'
p763
aS'http://im.nju.edu.cn/shownodir.aspx?contentid=cont2013031516&tcategoryid=bcat2010062918'
p764
aS'http://im.nju.edu.cn/shownodir.aspx?contentid=cont2013040312&tcategoryid=bcat2010062918'
p765
aS'http://im.nju.edu.cn/shownodir.aspx?contentid=cont2014031813&tcategoryid=bcat2010062918'
p766
aS'http://im.nju.edu.cn/shownodir.aspx?contentid=cont2013032617&tcategoryid=bcat2010062918'
p767
aS'http://im.nju.edu.cn/shownodir.aspx?contentid=cont2013031314&tcategoryid=bcat2010062918'
p768
aS'http://im.nju.edu.cn/shownodir.aspx?contentid=cont2014031211&tcategoryid=bcat2010062918'
p769
aS'http://im.nju.edu.cn/shownodir.aspx?contentid=cont2012072011&tcategoryid=bcat2010062918'
p770
atRp771
sS'http://im.nju.edu.cn/labcenter/Common.aspx?NewsType=3&Page=2&TypeNum='
p772
g8
((lp773
S'http://im.nju.edu.cn/labcenter/ShowNews.aspx?N_Id=73&NewsType=3&TypeNum=27'
p774
aS'http://im.nju.edu.cn/labcenter/ShowNews.aspx?N_Id=79&NewsType=3&TypeNum=27'
p775
aS'http://im.nju.edu.cn/labcenter/ShowNews.aspx?N_Id=76&NewsType=3&TypeNum=27'
p776
aS'http://im.nju.edu.cn/labcenter/Common.aspx?NewsType=3&Page=1&TypeNum='
p777
aS'http://im.nju.edu.cn/labcenter/ShowNews.aspx?N_Id=74&NewsType=3&TypeNum=27'
p778
ag736
aS'http://im.nju.edu.cn/labcenter/ShowNews.aspx?N_Id=75&NewsType=3&TypeNum=27'
p779
aS'http://im.nju.edu.cn/labcenter/ShowNews.aspx?N_Id=77&NewsType=3&TypeNum=27'
p780
atRp781
sg455
g8
((lp782
S'http://im.nju.edu.cn/shownodir.aspx?categoryid=bcat2010062953&page=1&tcategoryid=tcat2010060846'
p783
aS'http://im.nju.edu.cn/shownodir.aspx?contentid=cont20100629307&tcategoryid=tcat2010060846'
p784
atRp785
sg495
g8
((lp786
S'http://im.nju.edu.cn/shownodir.aspx?categoryid=bcat2010062931&parentid=&tcategoryid=tcat2010060846'
p787
atRp788
sg784
g8
((lp789
S'http://im.nju.edu.cn/shownodir.aspx?categoryid=bcat2010062953&parentid=&tcategoryid=tcat2010060846'
p790
atRp791
sg102
g8
((ltRp792
sS'http://im.nju.edu.cn/showonedir.aspx?categoryid=bcat2010062718&page=3&parentid=bcat2010062436&tcategoryid=tcat20100608155'
p793
g8
((lp794
S'http://im.nju.edu.cn/showonedir.aspx?contentid=cont20100627146&parentid=bcat2010062436&tcategoryid=tcat20100608155'
p795
ag414
atRp796
sg205
g8
((lp797
S'http://im.nju.edu.cn/labcenter/HD.aspx?q=42'
p798
aS'http://im.nju.edu.cn/labcenter/HD.aspx?q=43'
p799
aS'http://im.nju.edu.cn/labcenter/HD.aspx?q=40'
p800
aS'http://im.nju.edu.cn/labcenter/HD.aspx?q=41'
p801
aS'http://im.nju.edu.cn/labcenter/HD.aspx?q=44'
p802
aS'http://im.nju.edu.cn/labcenter/HD.aspx?q=39'
p803
atRp804
sg310
g8
((lp805
S'http://im.nju.edu.cn/labcenter/HD.aspx?q=13'
p806
aS'http://im.nju.edu.cn/labcenter/HD.aspx?q=12'
p807
aS'http://im.nju.edu.cn/labcenter/HD.aspx?q=15'
p808
aS'http://im.nju.edu.cn/labcenter/HD.aspx?q=14'
p809
aS'http://im.nju.edu.cn/labcenter/HD.aspx?q=17'
p810
aS'http://im.nju.edu.cn/labcenter/HD.aspx?q=16'
p811
atRp812
sS'http://im.nju.edu.cn/showtwodir.aspx?categoryid=bcat2010063072&page=1&parentid=bcat2010063032&tcategoryid=tcat20100608134'
p813
g8
((ltRp814
sS'http://im.nju.edu.cn/showtwodir.aspx?categoryid=bcat2010062918&page=2&parentid=bcat2010062918&tcategoryid=tcat2010060846'
p815
g8
((lp816
S'http://im.nju.edu.cn/showtwodir.aspx?contentid=cont2011041322&parentid=bcat2010062918&tcategoryid=tcat2010060846&twocategoryid=bcat2010062918'
p817
aS'http://im.nju.edu.cn/showtwodir.aspx?contentid=cont2010092621&parentid=bcat2010062918&tcategoryid=tcat2010060846&twocategoryid=bcat2010062918'
p818
aS'http://im.nju.edu.cn/showtwodir.aspx?contentid=cont2011041419&parentid=bcat2010062918&tcategoryid=tcat2010060846&twocategoryid=bcat2010062918'
p819
ag408
aS'http://im.nju.edu.cn/showtwodir.aspx?contentid=cont2010092525&parentid=bcat2010062918&tcategoryid=tcat2010060846&twocategoryid=bcat2010062918'
p820
aS'http://im.nju.edu.cn/showtwodir.aspx?contentid=cont2010122232&parentid=bcat2010062918&tcategoryid=tcat2010060846&twocategoryid=bcat2010062918'
p821
aS'http://im.nju.edu.cn/showtwodir.aspx?contentid=cont2011101110&parentid=bcat2010062918&tcategoryid=tcat2010060846&twocategoryid=bcat2010062918'
p822
aS'http://im.nju.edu.cn/showtwodir.aspx?contentid=cont2011110819&parentid=bcat2010062918&tcategoryid=tcat2010060846&twocategoryid=bcat2010062918'
p823
aS'http://im.nju.edu.cn/showtwodir.aspx?contentid=cont2010101116&parentid=bcat2010062918&tcategoryid=tcat2010060846&twocategoryid=bcat2010062918'
p824
aS'http://im.nju.edu.cn/showtwodir.aspx?contentid=cont2010092516&parentid=bcat2010062918&tcategoryid=tcat2010060846&twocategoryid=bcat2010062918'
p825
atRp826
sS'http://im.nju.edu.cn/labcenter/Common.aspx?NewsType=9&TypeNum=51'
p827
g8
((ltRp828
sS'http://im.nju.edu.cn/shownodir.aspx?categoryid=tcat2010060835&page=19&tcategoryid=tcat2010060835'
p829
g8
((lp830
g576
aS'http://im.nju.edu.cn/shownodir.aspx?contentid=cont2010062441&tcategoryid=tcat2010060835'
p831
aS'http://im.nju.edu.cn/shownodir.aspx?contentid=cont2010062451&tcategoryid=tcat2010060835'
p832
aS'http://im.nju.edu.cn/shownodir.aspx?contentid=cont2010062463&tcategoryid=tcat2010060835'
p833
aS'http://im.nju.edu.cn/shownodir.aspx?contentid=cont2010062473&tcategoryid=tcat2010060835'
p834
aS'http://im.nju.edu.cn/shownodir.aspx?contentid=cont20100624127&tcategoryid=tcat2010060835'
p835
aS'http://im.nju.edu.cn/shownodir.aspx?contentid=cont20100624119&tcategoryid=tcat2010060835'
p836
aS'http://im.nju.edu.cn/shownodir.aspx?contentid=cont20100624107&tcategoryid=tcat2010060835'
p837
aS'http://im.nju.edu.cn/shownodir.aspx?contentid=cont2010062485&tcategoryid=tcat2010060835'
p838
aS'http://im.nju.edu.cn/shownodir.aspx?contentid=cont20100624130&tcategoryid=tcat2010060835'
p839
aS'http://im.nju.edu.cn/shownodir.aspx?contentid=cont2010062491&tcategoryid=tcat2010060835'
p840
atRp841
sg218
g8
((lp842
S'http://im.nju.edu.cn/showtwodir.aspx?categoryid=bcat2011041315&parentid=bcat2010062966&tcategoryid=tcat2010060846'
p843
aS'http://im.nju.edu.cn/showtwodir.aspx?contentid=cont2011041321&parentid=bcat2010062966&tcategoryid=tcat2010060846&twocategoryid=bcat2011041315'
p844
aS'http://im.nju.edu.cn/showtwodir.aspx?categoryid=bcat2011041315&page=1&parentid=bcat2010062966&tcategoryid=tcat2010060846'
p845
ag704
aS'http://im.nju.edu.cn/showtwodir.aspx?contentid=cont2011041421&parentid=bcat2010062966&tcategoryid=tcat2010060846&twocategoryid=bcat2011041315'
p846
atRp847
sg734
g8
((ltRp848
sg428
g8
((lp849
g7
aS'http://im.nju.edu.cn/shownodir.aspx?contentid=cont20100624413&tcategoryid=tcat2010060835'
p850
aS'http://im.nju.edu.cn/shownodir.aspx?contentid=cont20100624388&tcategoryid=tcat2010060835'
p851
aS'http://im.nju.edu.cn/shownodir.aspx?contentid=cont20100624355&tcategoryid=tcat2010060835'
p852
aS'http://im.nju.edu.cn/shownodir.aspx?contentid=cont20100624424&tcategoryid=tcat2010060835'
p853
aS'http://im.nju.edu.cn/shownodir.aspx?contentid=cont20100624371&tcategoryid=tcat2010060835'
p854
aS'http://im.nju.edu.cn/shownodir.aspx?contentid=cont20100624433&tcategoryid=tcat2010060835'
p855
aS'http://im.nju.edu.cn/shownodir.aspx?contentid=cont20100624348&tcategoryid=tcat2010060835'
p856
aS'http://im.nju.edu.cn/shownodir.aspx?contentid=cont20100624368&tcategoryid=tcat2010060835'
p857
aS'http://im.nju.edu.cn/shownodir.aspx?contentid=cont20100624391&tcategoryid=tcat2010060835'
p858
aS'http://im.nju.edu.cn/shownodir.aspx?contentid=cont20100624404&tcategoryid=tcat2010060835'
p859
atRp860
sg344
g8
((lp861
S'http://im.nju.edu.cn/showtwodir.aspx?contentid=cont20100630331&parentid=bcat2010063032&tcategoryid=tcat20100608134&twocategoryid=bcat2010063072'
p862
ag813
aS'http://im.nju.edu.cn/showtwodir.aspx?contentid=cont20100630340&parentid=bcat2010063032&tcategoryid=tcat20100608134&twocategoryid=bcat2010063072'
p863
atRp864
sS'http://im.nju.edu.cn/shownodir.aspx?categoryid=bcat2011041315&parentid=&tcategoryid=tcat2010060846'
p865
g8
((ltRp866
sS'http://im.nju.edu.cn/shownodir.aspx?tcategoryid=tcat20100608165'
p867
g8
((lp868
S'http://im.nju.edu.cn/shownodir.aspx?contentid=cont20100629291&tcategoryid=tcat20100608165'
p869
aS'http://im.nju.edu.cn/shownodir.aspx?categoryid=tcat20100608165&page=1&tcategoryid=tcat20100608165'
p870
atRp871
sS'http://im.nju.edu.cn/shownodir.aspx?categoryid=bcat2010062941&parentid=&tcategoryid=tcat2010060846'
p872
g8
((ltRp873
sS'http://im.nju.edu.cn/shownodir.aspx?categoryid=tcat2010060826&page=4&tcategoryid=tcat2010060826'
p874
g8
((lp875
S'http://im.nju.edu.cn/shownodir.aspx?contentid=cont2012040117&tcategoryid=tcat2010060826'
p876
aS'http://im.nju.edu.cn/shownodir.aspx?contentid=cont2012092816&tcategoryid=tcat2010060826'
p877
aS'http://im.nju.edu.cn/shownodir.aspx?contentid=cont2012121411&tcategoryid=tcat2010060826'
p878
aS'http://im.nju.edu.cn/shownodir.aspx?contentid=cont2013022714&tcategoryid=tcat2010060826'
p879
aS'http://im.nju.edu.cn/shownodir.aspx?contentid=cont2013041817&tcategoryid=tcat2010060826'
p880
ag515
aS'http://im.nju.edu.cn/shownodir.aspx?contentid=cont2012110817&tcategoryid=tcat2010060826'
p881
aS'http://im.nju.edu.cn/shownodir.aspx?contentid=cont2012122414&tcategoryid=tcat2010060826'
p882
aS'http://im.nju.edu.cn/shownodir.aspx?contentid=cont2012051714&tcategoryid=tcat2010060826'
p883
aS'http://im.nju.edu.cn/shownodir.aspx?contentid=cont2012101817&tcategoryid=tcat2010060826'
p884
atRp885
sg648
g8
((lp886
S'http://im.nju.edu.cn/shownodir.aspx?contentid=cont2012050846&tcategoryid=tcat2010060858'
p887
aS'http://im.nju.edu.cn/shownodir.aspx?categoryid=bcat2012050852&page=1&tcategoryid=tcat2010060858'
p888
atRp889
sg335
g8
((lp890
S'http://im.nju.edu.cn/showtwodir.aspx?categoryid=bcat2010063042&parentid=bcat2010063032&tcategoryid=tcat20100608134'
p891
aS'http://im.nju.edu.cn/showtwodir.aspx?categoryid=bcat2010063067&parentid=bcat2010063032&tcategoryid=tcat20100608134'
p892
aS'http://im.nju.edu.cn/showtwodir.aspx?categoryid=bcat2010063072&parentid=bcat2010063032&tcategoryid=tcat20100608134'
p893
aS'http://im.nju.edu.cn/showtwodir.aspx?categoryid=bcat2013032516&parentid=bcat2010063032&tcategoryid=tcat20100608134'
p894
aS'http://im.nju.edu.cn/showtwodir.aspx?categoryid=bcat2010063054&parentid=bcat2010063032&tcategoryid=tcat20100608134'
p895
aS'http://im.nju.edu.cn/showtwodir.aspx?categoryid=bcat2010063081&parentid=bcat2010063032&tcategoryid=tcat20100608134'
p896
atRp897
sg230
g8
((lp898
S'http://im.nju.edu.cn/shownodir.aspx?categoryid=tcat2010060835&page=7&tcategoryid=tcat2010060835'
p899
aS'http://im.nju.edu.cn/shownodir.aspx?contentid=cont2010062534&tcategoryid=tcat2010060835'
p900
aS'http://im.nju.edu.cn/shownodir.aspx?contentid=cont2010062618&tcategoryid=tcat2010060835'
p901
aS'http://im.nju.edu.cn/shownodir.aspx?contentid=cont20100625106&tcategoryid=tcat2010060835'
p902
aS'http://im.nju.edu.cn/shownodir.aspx?contentid=cont2010062567&tcategoryid=tcat2010060835'
p903
aS'http://im.nju.edu.cn/shownodir.aspx?contentid=cont2010062623&tcategoryid=tcat2010060835'
p904
aS'http://im.nju.edu.cn/shownodir.aspx?contentid=cont2010062575&tcategoryid=tcat2010060835'
p905
ag416
aS'http://im.nju.edu.cn/shownodir.aspx?contentid=cont2010062545&tcategoryid=tcat2010060835'
p906
aS'http://im.nju.edu.cn/shownodir.aspx?contentid=cont2010062558&tcategoryid=tcat2010060835'
p907
aS'http://im.nju.edu.cn/shownodir.aspx?contentid=cont2010062631&tcategoryid=tcat2010060835'
p908
atRp909
sg586
g8
((ltRp910
sg295
g8
((lp911
g827
aS'http://im.nju.edu.cn/labcenter/Common.aspx?NewsType=9&TypeNum=49'
p912
atRp913
sg620
g8
((lp914
g874
aS'http://im.nju.edu.cn/shownodir.aspx?contentid=cont2012031618&tcategoryid=tcat2010060826'
p915
aS'http://im.nju.edu.cn/shownodir.aspx?contentid=cont2011052614&tcategoryid=tcat2010060826'
p916
aS'http://im.nju.edu.cn/shownodir.aspx?contentid=cont2012030719&tcategoryid=tcat2010060826'
p917
ag410
aS'http://im.nju.edu.cn/shownodir.aspx?contentid=cont2011121337&tcategoryid=tcat2010060826'
p918
aS'http://im.nju.edu.cn/shownodir.aspx?contentid=cont2011121912&tcategoryid=tcat2010060826'
p919
aS'http://im.nju.edu.cn/shownodir.aspx?contentid=cont2011110217&tcategoryid=tcat2010060826'
p920
aS'http://im.nju.edu.cn/shownodir.aspx?contentid=cont2011042118&tcategoryid=tcat2010060826'
p921
aS'http://im.nju.edu.cn/shownodir.aspx?contentid=cont2011121327&tcategoryid=tcat2010060826'
p922
ag152
atRp923
sg551
g8
((lp924
S'http://im.nju.edu.cn/shownodir.aspx?contentid=cont2014050623&tcategoryid=tcat2010060876'
p925
aS'http://im.nju.edu.cn/shownodir.aspx?contentid=cont2014093027&tcategoryid=tcat2010060876'
p926
aS'http://im.nju.edu.cn/shownodir.aspx?contentid=cont2014052112&tcategoryid=tcat2010060876'
p927
aS'http://im.nju.edu.cn/shownodir.aspx?contentid=cont2014053013&tcategoryid=tcat2010060876'
p928
aS'http://im.nju.edu.cn/shownodir.aspx?contentid=cont2014102111&tcategoryid=tcat2010060876'
p929
aS'http://im.nju.edu.cn/shownodir.aspx?contentid=cont2014070227&tcategoryid=tcat2010060876'
p930
aS'http://im.nju.edu.cn/shownodir.aspx?categoryid=tcat2010060876&page=13&tcategoryid=tcat2010060876'
p931
aS'http://im.nju.edu.cn/shownodir.aspx?contentid=cont2014121310&tcategoryid=tcat2010060876'
p932
aS'http://im.nju.edu.cn/shownodir.aspx?contentid=cont2014122916&tcategoryid=tcat2010060876'
p933
aS'http://im.nju.edu.cn/shownodir.aspx?categoryid=tcat2010060876&page=1&tcategoryid=tcat2010060876'
p934
aS'http://im.nju.edu.cn/shownodir.aspx?categoryid=tcat2010060876&page=2&tcategoryid=tcat2010060876'
p935
aS'http://im.nju.edu.cn/shownodir.aspx?contentid=cont2014102711&tcategoryid=tcat2010060876'
p936
aS'http://im.nju.edu.cn/shownodir.aspx?contentid=cont2014101111&tcategoryid=tcat2010060876'
p937
atRp938
sS'http://im.nju.edu.cn/showtwodir.aspx?categoryid=bcat2010063042&page=1&parentid=bcat2010063032&tcategoryid=tcat20100608134'
p939
g8
((ltRp940
sg283
g8
((lp941
S'http://im.nju.edu.cn/labcenter/ShowNews.aspx?N_Id=81&NewsType=3&TypeNum=27'
p942
aS'http://im.nju.edu.cn/labcenter/Common.aspx?NewsType=3&TypeNum=28'
p943
aS'http://im.nju.edu.cn/labcenter/Common.aspx?NewsType=3&TypeNum=29'
p944
aS'http://im.nju.edu.cn/labcenter/ShowNews.aspx?N_Id=80&NewsType=3&TypeNum=27'
p945
aS'http://im.nju.edu.cn/labcenter/ShowNews.aspx?N_Id=87&NewsType=3&TypeNum=27'
p946
aS'http://im.nju.edu.cn/labcenter/ShowNews.aspx?N_Id=82&NewsType=3&TypeNum=27'
p947
aS'http://im.nju.edu.cn/labcenter/Common.aspx?NewsType=3&TypeNum=30'
p948
aS'http://im.nju.edu.cn/labcenter/Common.aspx?NewsType=3&TypeNum=31'
p949
ag506
aS'http://im.nju.edu.cn/labcenter/Common.aspx?NewsType=3&TypeNum=32'
p950
ag772
aS'http://im.nju.edu.cn/labcenter/ShowNews.aspx?N_Id=86&NewsType=3&TypeNum=27'
p951
aS'http://im.nju.edu.cn/labcenter/ShowNews.aspx?N_Id=89&NewsType=3&TypeNum=27'
p952
aS'http://im.nju.edu.cn/labcenter/ShowNews.aspx?N_Id=83&NewsType=3&TypeNum=27'
p953
aS'http://im.nju.edu.cn/labcenter/ShowNews.aspx?N_Id=84&NewsType=3&TypeNum=27'
p954
aS'http://im.nju.edu.cn/labcenter/ShowNews.aspx?N_Id=85&NewsType=3&TypeNum=27'
p955
aS'http://im.nju.edu.cn/labcenter/ShowNews.aspx?N_Id=88&NewsType=3&TypeNum=27'
p956
atRp957
sg284
g8
((lp958
S'http://im.nju.edu.cn/labcenter/Common.aspx?NewsType=2&TypeNum=59'
p959
aS'http://im.nju.edu.cn/labcenter/Common.aspx?NewsType=2&TypeNum=23'
p960
aS'http://im.nju.edu.cn/labcenter/Common.aspx?NewsType=2&TypeNum=25'
p961
aS'http://im.nju.edu.cn/labcenter/Common.aspx?NewsType=2&TypeNum=24'
p962
ag92
atRp963
sg254
g8
((lp964
S'http://im.nju.edu.cn/labcenter/Common.aspx?NewsType=6&TypeNum=43'
p965
aS'http://im.nju.edu.cn/labcenter/Common.aspx?NewsType=6&TypeNum=42'
p966
aS'http://im.nju.edu.cn/labcenter/Common.aspx?NewsType=6&TypeNum=45'
p967
ag135
atRp968
sg288
g8
((lp969
S'http://im.nju.edu.cn/labcenter/Common.aspx?NewsType=5&TypeNum=38'
p970
aS'http://im.nju.edu.cn/labcenter/Common.aspx?NewsType=5&TypeNum=40'
p971
ag126
aS'http://im.nju.edu.cn/labcenter/Common.aspx?NewsType=5&TypeNum=61'
p972
atRp973
sS'http://im.nju.edu.cn/shownodir.aspx?categoryid=tcat2010060835&page=3&tcategoryid=tcat2010060835'
p974
g8
((lp975
S'http://im.nju.edu.cn/shownodir.aspx?contentid=cont2013040918&tcategoryid=tcat2010060835'
p976
aS'http://im.nju.edu.cn/shownodir.aspx?contentid=cont2013050228&tcategoryid=tcat2010060835'
p977
aS'http://im.nju.edu.cn/shownodir.aspx?contentid=cont2013040637&tcategoryid=tcat2010060835'
p978
aS'http://im.nju.edu.cn/shownodir.aspx?contentid=cont2013041628&tcategoryid=tcat2010060835'
p979
aS'http://im.nju.edu.cn/shownodir.aspx?contentid=cont2013042313&tcategoryid=tcat2010060835'
p980
aS'http://im.nju.edu.cn/shownodir.aspx?categoryid=tcat2010060835&page=4&tcategoryid=tcat2010060835'
p981
aS'http://im.nju.edu.cn/shownodir.aspx?contentid=cont2013041617&tcategoryid=tcat2010060835'
p982
aS'http://im.nju.edu.cn/shownodir.aspx?contentid=cont2013052727&tcategoryid=tcat2010060835'
p983
aS'http://im.nju.edu.cn/shownodir.aspx?contentid=cont2013052017&tcategoryid=tcat2010060835'
p984
aS'http://im.nju.edu.cn/shownodir.aspx?contentid=cont2013041914&tcategoryid=tcat2010060835'
p985
aS'http://im.nju.edu.cn/shownodir.aspx?contentid=cont2013041636&tcategoryid=tcat2010060835'
p986
atRp987
sS'http://im.nju.edu.cn/shownodir.aspx?categoryid=bcat2010062941&page=1&tcategoryid=tcat2010060846'
p988
g8
((ltRp989
sS'http://im.nju.edu.cn/shownodir.aspx?contentid=cont2010062733&tcategoryid=tcat2010060826'
p990
g8
((ltRp991
sg461
g8
((lp992
S'http://im.nju.edu.cn/shownodir.aspx?categoryid=bcat2012050836&parentid=&tcategoryid=tcat2010060858'
p993
atRp994
sg993
g8
((ltRp995
sS'http://im.nju.edu.cn/labcenter/Common.aspx?NewsType=8&TypeNum=56'
p996
g8
((lp997
S'http://im.nju.edu.cn/labcenter/ShowNews.aspx?N_Id=35&NewsType=8&TypeNum=56'
p998
aS'http://im.nju.edu.cn/labcenter/ShowNews.aspx?N_Id=34&NewsType=8&TypeNum=56'
p999
aS'http://im.nju.edu.cn/labcenter/ShowNews.aspx?N_Id=33&NewsType=8&TypeNum=56'
p1000
atRp1001
sg787
g8
((ltRp1002
sg368
g8
((ltRp1003
sg14
g8
((lp1004
S'http://im.nju.edu.cn/shownodir.aspx?contentid=cont2011113011&tcategoryid=tcat2010060835'
p1005
aS'http://im.nju.edu.cn/shownodir.aspx?contentid=cont2011122726&tcategoryid=tcat2010060835'
p1006
aS'http://im.nju.edu.cn/shownodir.aspx?contentid=cont2011112810&tcategoryid=tcat2010060835'
p1007
aS'http://im.nju.edu.cn/shownodir.aspx?contentid=cont2011112531&tcategoryid=tcat2010060835'
p1008
aS'http://im.nju.edu.cn/shownodir.aspx?contentid=cont2011120815&tcategoryid=tcat2010060835'
p1009
aS'http://im.nju.edu.cn/shownodir.aspx?contentid=cont2011120822&tcategoryid=tcat2010060835'
p1010
aS'http://im.nju.edu.cn/shownodir.aspx?contentid=cont2011122717&tcategoryid=tcat2010060835'
p1011
aS'http://im.nju.edu.cn/shownodir.aspx?contentid=cont2012010511&tcategoryid=tcat2010060835'
p1012
aS'http://im.nju.edu.cn/shownodir.aspx?contentid=cont2011112515&tcategoryid=tcat2010060835'
p1013
aS'http://im.nju.edu.cn/shownodir.aspx?categoryid=tcat2010060835&page=13&tcategoryid=tcat2010060835'
p1014
aS'http://im.nju.edu.cn/shownodir.aspx?contentid=cont2011122730&tcategoryid=tcat2010060835'
p1015
atRp1016
sg452
g8
((lp1017
g239
ag445
atRp1018
sg698
g8
((lp1019
S'http://im.nju.edu.cn/shownodir.aspx?contentid=cont2013102414&tcategoryid=tcat2010060826'
p1020
aS'http://im.nju.edu.cn/shownodir.aspx?contentid=cont2014041123&tcategoryid=tcat2010060826'
p1021
aS'http://im.nju.edu.cn/shownodir.aspx?contentid=cont2014030612&tcategoryid=tcat2010060826'
p1022
ag672
aS'http://im.nju.edu.cn/shownodir.aspx?contentid=cont2014041814&tcategoryid=tcat2010060826'
p1023
aS'http://im.nju.edu.cn/shownodir.aspx?contentid=cont2013120919&tcategoryid=tcat2010060826'
p1024
aS'http://im.nju.edu.cn/shownodir.aspx?contentid=cont2014061011&tcategoryid=tcat2010060826'
p1025
aS'http://im.nju.edu.cn/shownodir.aspx?contentid=cont2014010918&tcategoryid=tcat2010060826'
p1026
aS'http://im.nju.edu.cn/shownodir.aspx?contentid=cont2013102168&tcategoryid=tcat2010060826'
p1027
aS'http://im.nju.edu.cn/shownodir.aspx?contentid=cont2014041110&tcategoryid=tcat2010060826'
p1028
aS'http://im.nju.edu.cn/shownodir.aspx?contentid=cont2014021312&tcategoryid=tcat2010060826'
p1029
atRp1030
sg343
g8
((lp1031
S'http://im.nju.edu.cn/showtwodir.aspx?contentid=cont20100630309&parentid=bcat2010063032&tcategoryid=tcat20100608134&twocategoryid=bcat2010063042'
p1032
aS'http://im.nju.edu.cn/showtwodir.aspx?contentid=cont20100630290&parentid=bcat2010063032&tcategoryid=tcat20100608134&twocategoryid=bcat2010063042'
p1033
ag939
atRp1034
sg391
g8
((lp1035
g325
atRp1036
sg935
g8
((lp1037
S'http://im.nju.edu.cn/shownodir.aspx?contentid=cont2014032610&tcategoryid=tcat2010060876'
p1038
aS'http://im.nju.edu.cn/shownodir.aspx?contentid=cont2014032017&tcategoryid=tcat2010060876'
p1039
aS'http://im.nju.edu.cn/shownodir.aspx?contentid=cont2014010218&tcategoryid=tcat2010060876'
p1040
aS'http://im.nju.edu.cn/shownodir.aspx?contentid=cont2014030318&tcategoryid=tcat2010060876'
p1041
aS'http://im.nju.edu.cn/shownodir.aspx?contentid=cont2013112412&tcategoryid=tcat2010060876'
p1042
aS'http://im.nju.edu.cn/shownodir.aspx?contentid=cont2014031720&tcategoryid=tcat2010060876'
p1043
aS'http://im.nju.edu.cn/shownodir.aspx?contentid=cont2014010724&tcategoryid=tcat2010060876'
p1044
aS'http://im.nju.edu.cn/shownodir.aspx?contentid=cont2014011312&tcategoryid=tcat2010060876'
p1045
aS'http://im.nju.edu.cn/shownodir.aspx?contentid=cont2014010715&tcategoryid=tcat2010060876'
p1046
aS'http://im.nju.edu.cn/shownodir.aspx?categoryid=tcat2010060876&page=3&tcategoryid=tcat2010060876'
p1047
aS'http://im.nju.edu.cn/shownodir.aspx?contentid=cont2014031413&tcategoryid=tcat2010060876'
p1048
atRp1049
sg790
g8
((ltRp1050
sg650
g8
((lp1051
g741
aS'http://im.nju.edu.cn/shownodir.aspx?categoryid=bcat2012050828&page=1&tcategoryid=tcat2010060858'
p1052
atRp1053
sS'http://im.nju.edu.cn/shownodir.aspx?categoryid=tcat2010060876&page=12&tcategoryid=tcat2010060876'
p1054
g8
((lp1055
S'http://im.nju.edu.cn/shownodir.aspx?contentid=cont2010062871&tcategoryid=tcat2010060876'
p1056
aS'http://im.nju.edu.cn/shownodir.aspx?contentid=cont2010062918&tcategoryid=tcat2010060876'
p1057
aS'http://im.nju.edu.cn/shownodir.aspx?contentid=cont20100626318&tcategoryid=tcat2010060876'
p1058
aS'http://im.nju.edu.cn/shownodir.aspx?contentid=cont20100626329&tcategoryid=tcat2010060876'
p1059
aS'http://im.nju.edu.cn/shownodir.aspx?contentid=cont2010070817&tcategoryid=tcat2010060876'
p1060
aS'http://im.nju.edu.cn/shownodir.aspx?categoryid=tcat2010060876&page=11&tcategoryid=tcat2010060876'
p1061
ag137
aS'http://im.nju.edu.cn/shownodir.aspx?contentid=cont20100626429&tcategoryid=tcat2010060876'
p1062
aS'http://im.nju.edu.cn/shownodir.aspx?contentid=cont20100626286&tcategoryid=tcat2010060876'
p1063
aS'http://im.nju.edu.cn/shownodir.aspx?contentid=cont2010062862&tcategoryid=tcat2010060876'
p1064
aS'http://im.nju.edu.cn/shownodir.aspx?contentid=cont20100626275&tcategoryid=tcat2010060876'
p1065
atRp1066
sg888
g8
((ltRp1067
sg702
g8
((lp1068
S'http://im.nju.edu.cn/shownodir.aspx?contentid=cont2010062757&tcategoryid=tcat2010060826'
p1069
aS'http://im.nju.edu.cn/shownodir.aspx?contentid=cont2010062724&tcategoryid=tcat2010060826'
p1070
aS'http://im.nju.edu.cn/shownodir.aspx?contentid=cont2010062728&tcategoryid=tcat2010060826'
p1071
ag745
aS'http://im.nju.edu.cn/shownodir.aspx?contentid=cont2010062797&tcategoryid=tcat2010060826'
p1072
aS'http://im.nju.edu.cn/shownodir.aspx?contentid=cont2010062742&tcategoryid=tcat2010060826'
p1073
aS'http://im.nju.edu.cn/shownodir.aspx?contentid=cont2010062785&tcategoryid=tcat2010060826'
p1074
ag990
aS'http://im.nju.edu.cn/shownodir.aspx?contentid=cont20100626589&tcategoryid=tcat2010060826'
p1075
aS'http://im.nju.edu.cn/shownodir.aspx?contentid=cont20100627109&tcategoryid=tcat2010060826'
p1076
atRp1077
sg783
g8
((ltRp1078
sg759
g8
((lp1079
S'http://im.nju.edu.cn/shownodir.aspx?contentid=cont2010101116&tcategoryid=bcat2010062918'
p1080
aS'http://im.nju.edu.cn/shownodir.aspx?contentid=cont2010092516&tcategoryid=bcat2010062918'
p1081
aS'http://im.nju.edu.cn/shownodir.aspx?contentid=cont2011041419&tcategoryid=bcat2010062918'
p1082
ag412
aS'http://im.nju.edu.cn/shownodir.aspx?contentid=cont2010122232&tcategoryid=bcat2010062918'
p1083
aS'http://im.nju.edu.cn/shownodir.aspx?contentid=cont2011110819&tcategoryid=bcat2010062918'
p1084
aS'http://im.nju.edu.cn/shownodir.aspx?contentid=cont2011041322&tcategoryid=bcat2010062918'
p1085
aS'http://im.nju.edu.cn/shownodir.aspx?contentid=cont2010092621&tcategoryid=bcat2010062918'
p1086
aS'http://im.nju.edu.cn/shownodir.aspx?contentid=cont2011101110&tcategoryid=bcat2010062918'
p1087
aS'http://im.nju.edu.cn/shownodir.aspx?contentid=cont20100629221&tcategoryid=bcat2010062918'
p1088
atRp1089
sg887
g8
((lp1090
g685
atRp1091
sg607
g8
((ltRp1092
sS'http://im.nju.edu.cn/showtwodir.aspx?categoryid=bcat2010062918&page=4&parentid=bcat2010062918&tcategoryid=tcat2010060846'
p1093
g8
((lp1094
S'http://im.nju.edu.cn/showtwodir.aspx?contentid=cont20100629213&parentid=bcat2010062918&tcategoryid=tcat2010060846&twocategoryid=bcat2010062918'
p1095
aS'http://im.nju.edu.cn/showtwodir.aspx?categoryid=bcat2010062918&page=3&parentid=bcat2010062918&tcategoryid=tcat2010060846'
p1096
aS'http://im.nju.edu.cn/showtwodir.aspx?contentid=cont2010062957&parentid=bcat2010062918&tcategoryid=tcat2010060846&twocategoryid=bcat2010062918'
p1097
aS'http://im.nju.edu.cn/showtwodir.aspx?contentid=cont2010062970&parentid=bcat2010062918&tcategoryid=tcat2010060846&twocategoryid=bcat2010062918'
p1098
aS'http://im.nju.edu.cn/showtwodir.aspx?contentid=cont2010062988&parentid=bcat2010062918&tcategoryid=tcat2010060846&twocategoryid=bcat2010062918'
p1099
aS'http://im.nju.edu.cn/showtwodir.aspx?contentid=cont20100629246&parentid=bcat2010062918&tcategoryid=tcat2010060846&twocategoryid=bcat2010062918'
p1100
atRp1101
sS'http://im.nju.edu.cn/shownodir.aspx?categoryid=tcat2010060835&page=8&tcategoryid=tcat2010060835'
p1102
g8
((lp1103
S'http://im.nju.edu.cn/shownodir.aspx?contentid=cont20100630179&tcategoryid=tcat2010060835'
p1104
ag243
aS'http://im.nju.edu.cn/shownodir.aspx?contentid=cont20100630142&tcategoryid=tcat2010060835'
p1105
aS'http://im.nju.edu.cn/shownodir.aspx?contentid=cont20100630155&tcategoryid=tcat2010060835'
p1106
aS'http://im.nju.edu.cn/shownodir.aspx?contentid=cont20100630107&tcategoryid=tcat2010060835'
p1107
ag374
aS'http://im.nju.edu.cn/shownodir.aspx?contentid=cont20100630125&tcategoryid=tcat2010060835'
p1108
aS'http://im.nju.edu.cn/shownodir.aspx?contentid=cont20100630164&tcategoryid=tcat2010060835'
p1109
aS'http://im.nju.edu.cn/shownodir.aspx?contentid=cont20100627467&tcategoryid=tcat2010060835'
p1110
aS'http://im.nju.edu.cn/shownodir.aspx?contentid=cont20100630137&tcategoryid=tcat2010060835'
p1111
aS'http://im.nju.edu.cn/shownodir.aspx?contentid=cont20100627474&tcategoryid=tcat2010060835'
p1112
atRp1113
sg999
g8
((ltRp1114
sg1042
g8
((ltRp1115
sS'http://im.nju.edu.cn/shownodir.aspx?contentid=cont2010062994&tcategoryid=tcat2010060846'
p1116
g8
((ltRp1117
sg899
g8
((lp1118
S'http://im.nju.edu.cn/shownodir.aspx?contentid=cont20100627434&tcategoryid=tcat2010060835'
p1119
aS'http://im.nju.edu.cn/shownodir.aspx?contentid=cont2010062699&tcategoryid=tcat2010060835'
p1120
ag1102
aS'http://im.nju.edu.cn/shownodir.aspx?contentid=cont20100627457&tcategoryid=tcat2010060835'
p1121
aS'http://im.nju.edu.cn/shownodir.aspx?contentid=cont20100627416&tcategoryid=tcat2010060835'
p1122
ag655
aS'http://im.nju.edu.cn/shownodir.aspx?contentid=cont2010062652&tcategoryid=tcat2010060835'
p1123
aS'http://im.nju.edu.cn/shownodir.aspx?contentid=cont2010062663&tcategoryid=tcat2010060835'
p1124
aS'http://im.nju.edu.cn/shownodir.aspx?contentid=cont20100627403&tcategoryid=tcat2010060835'
p1125
aS'http://im.nju.edu.cn/shownodir.aspx?contentid=cont2010062645&tcategoryid=tcat2010060835'
p1126
aS'http://im.nju.edu.cn/shownodir.aspx?contentid=cont20100627392&tcategoryid=tcat2010060835'
p1127
atRp1128
sS'http://im.nju.edu.cn/showtwodir.aspx?contentid=cont20100630255&parentid=bcat2010063025&tcategoryid=tcat20100608134&twocategoryid=bcat2010063025'
p1129
g8
((ltRp1130
sg453
g8
((lp1131
S'http://im.nju.edu.cn/shownodir.aspx?contentid=cont20100629281&tcategoryid=tcat2010060846'
p1132
ag988
atRp1133
sS'http://im.nju.edu.cn/labcenter/Common.aspx?NewsType=3&Page=1&TypeNum=27'
p1134
g8
((ltRp1135
sg217
g8
((lp1136
g1093
aS'http://im.nju.edu.cn/showtwodir.aspx?contentid=cont2012062816&parentid=bcat2010062918&tcategoryid=tcat2010060846&twocategoryid=bcat2010062918'
p1137
aS'http://im.nju.edu.cn/showtwodir.aspx?contentid=cont2012072011&parentid=bcat2010062918&tcategoryid=tcat2010060846&twocategoryid=bcat2010062918'
p1138
aS'http://im.nju.edu.cn/showtwodir.aspx?contentid=cont2012070417&parentid=bcat2010062918&tcategoryid=tcat2010060846&twocategoryid=bcat2010062918'
p1139
aS'http://im.nju.edu.cn/showtwodir.aspx?contentid=cont2013032617&parentid=bcat2010062918&tcategoryid=tcat2010060846&twocategoryid=bcat2010062918'
p1140
aS'http://im.nju.edu.cn/showtwodir.aspx?categoryid=bcat2010062918&page=1&parentid=bcat2010062918&tcategoryid=tcat2010060846'
p1141
ag815
aS'http://im.nju.edu.cn/showtwodir.aspx?contentid=cont2014040417&parentid=bcat2010062918&tcategoryid=tcat2010060846&twocategoryid=bcat2010062918'
p1142
aS'http://im.nju.edu.cn/showtwodir.aspx?contentid=cont2013031314&parentid=bcat2010062918&tcategoryid=tcat2010060846&twocategoryid=bcat2010062918'
p1143
aS'http://im.nju.edu.cn/showtwodir.aspx?contentid=cont2014031813&parentid=bcat2010062918&tcategoryid=tcat2010060846&twocategoryid=bcat2010062918'
p1144
aS'http://im.nju.edu.cn/showtwodir.aspx?contentid=cont2013031516&parentid=bcat2010062918&tcategoryid=tcat2010060846&twocategoryid=bcat2010062918'
p1145
aS'http://im.nju.edu.cn/showtwodir.aspx?contentid=cont2014031211&parentid=bcat2010062918&tcategoryid=tcat2010060846&twocategoryid=bcat2010062918'
p1146
aS'http://im.nju.edu.cn/showtwodir.aspx?contentid=cont2013040312&parentid=bcat2010062918&tcategoryid=tcat2010060846&twocategoryid=bcat2010062918'
p1147
atRp1148
sg439
g8
((lp1149
g203
aS'http://im.nju.edu.cn/labcenter/HD.aspx?q=55'
p1150
aS'http://im.nju.edu.cn/labcenter/HD.aspx?q=54'
p1151
aS'http://im.nju.edu.cn/labcenter/WD.aspx?Page=5&f=1'
p1152
aS'http://im.nju.edu.cn/labcenter/HD.aspx?q=56'
p1153
aS'http://im.nju.edu.cn/labcenter/HD.aspx?q=51'
p1154
aS'http://im.nju.edu.cn/labcenter/HD.aspx?q=53'
p1155
aS'http://im.nju.edu.cn/labcenter/HD.aspx?q=52'
p1156
atRp1157
sg508
g8
((lp1158
g1134
atRp1159
sg1014
g8
((lp1160
S'http://im.nju.edu.cn/shownodir.aspx?contentid=cont2012033032&tcategoryid=tcat2010060835'
p1161
ag186
aS'http://im.nju.edu.cn/shownodir.aspx?contentid=cont20110914188&tcategoryid=tcat2010060835'
p1162
aS'http://im.nju.edu.cn/shownodir.aspx?contentid=cont2012032921&tcategoryid=tcat2010060835'
p1163
aS'http://im.nju.edu.cn/shownodir.aspx?contentid=cont2011101025&tcategoryid=tcat2010060835'
p1164
aS'http://im.nju.edu.cn/shownodir.aspx?contentid=cont2012033029&tcategoryid=tcat2010060835'
p1165
aS'http://im.nju.edu.cn/shownodir.aspx?contentid=cont2012032910&tcategoryid=tcat2010060835'
p1166
aS'http://im.nju.edu.cn/shownodir.aspx?contentid=cont20110914193&tcategoryid=tcat2010060835'
p1167
aS'http://im.nju.edu.cn/shownodir.aspx?contentid=cont20110914207&tcategoryid=tcat2010060835'
p1168
aS'http://im.nju.edu.cn/shownodir.aspx?contentid=cont2011112524&tcategoryid=tcat2010060835'
p1169
aS'http://im.nju.edu.cn/shownodir.aspx?contentid=cont20110914213&tcategoryid=tcat2010060835'
p1170
atRp1171
sg193
g8
((lp1172
S'http://im.nju.edu.cn/shownodir.aspx?contentid=cont2011091474&tcategoryid=tcat2010060835'
p1173
aS'http://im.nju.edu.cn/shownodir.aspx?contentid=cont2011091421&tcategoryid=tcat2010060835'
p1174
aS'http://im.nju.edu.cn/shownodir.aspx?contentid=cont2011061219&tcategoryid=tcat2010060835'
p1175
aS'http://im.nju.edu.cn/shownodir.aspx?contentid=cont2011091458&tcategoryid=tcat2010060835'
p1176
aS'http://im.nju.edu.cn/shownodir.aspx?contentid=cont2011091411&tcategoryid=tcat2010060835'
p1177
aS'http://im.nju.edu.cn/shownodir.aspx?contentid=cont2011091443&tcategoryid=tcat2010060835'
p1178
aS'http://im.nju.edu.cn/shownodir.aspx?contentid=cont2011062719&tcategoryid=tcat2010060835'
p1179
aS'http://im.nju.edu.cn/shownodir.aspx?contentid=cont2011062726&tcategoryid=tcat2010060835'
p1180
aS'http://im.nju.edu.cn/shownodir.aspx?contentid=cont2011091434&tcategoryid=tcat2010060835'
p1181
aS'http://im.nju.edu.cn/shownodir.aspx?contentid=cont2011091469&tcategoryid=tcat2010060835'
p1182
atRp1183
sg222
g8
((lp1184
g81
aS'http://im.nju.edu.cn/showtwodir.aspx?contentid=cont20100629347&parentid=bcat2010062931&tcategoryid=tcat2010060846&twocategoryid=bcat2010062931'
p1185
aS'http://im.nju.edu.cn/showtwodir.aspx?contentid=cont20100629321&parentid=bcat2010062931&tcategoryid=tcat2010060846&twocategoryid=bcat2010062931'
p1186
aS'http://im.nju.edu.cn/showtwodir.aspx?contentid=cont20100629276&parentid=bcat2010062931&tcategoryid=tcat2010060846&twocategoryid=bcat2010062931'
p1187
aS'http://im.nju.edu.cn/showtwodir.aspx?contentid=cont20100629338&parentid=bcat2010062931&tcategoryid=tcat2010060846&twocategoryid=bcat2010062931'
p1188
atRp1189
sg340
g8
((lp1190
S'http://im.nju.edu.cn/showtwodir.aspx?contentid=cont20100630270&parentid=bcat2010063025&tcategoryid=tcat20100608134&twocategoryid=bcat2010063025'
p1191
ag1129
aS'http://im.nju.edu.cn/showtwodir.aspx?categoryid=bcat2010063025&page=1&parentid=bcat2010063025&tcategoryid=tcat20100608134'
p1192
aS'http://im.nju.edu.cn/showtwodir.aspx?contentid=cont20100630267&parentid=bcat2010063025&tcategoryid=tcat20100608134&twocategoryid=bcat2010063025'
p1193
aS'http://im.nju.edu.cn/showtwodir.aspx?contentid=cont20100630242&parentid=bcat2010063025&tcategoryid=tcat20100608134&twocategoryid=bcat2010063025'
p1194
aS'http://im.nju.edu.cn/showtwodir.aspx?contentid=cont20100630283&parentid=bcat2010063025&tcategoryid=tcat20100608134&twocategoryid=bcat2010063025'
p1195
aS'http://im.nju.edu.cn/showtwodir.aspx?contentid=cont20100630233&parentid=bcat2010063025&tcategoryid=tcat20100608134&twocategoryid=bcat2010063025'
p1196
atRp1197
sg241
g8
((ltRp1198
sg378
g8
((ltRp1199
sg537
g8
((lp1200
g867
atRp1201
sg372
g8
((ltRp1202
sg379
g8
((lp1203
S'http://im.nju.edu.cn/shownodir.aspx?contentid=cont2011052313&tcategoryid=tcat2010060835'
p1204
aS'http://im.nju.edu.cn/shownodir.aspx?contentid=cont2011041116&tcategoryid=tcat2010060835'
p1205
aS'http://im.nju.edu.cn/shownodir.aspx?contentid=cont2011040612&tcategoryid=tcat2010060835'
p1206
ag687
aS'http://im.nju.edu.cn/shownodir.aspx?contentid=cont2011042925&tcategoryid=tcat2010060835'
p1207
aS'http://im.nju.edu.cn/shownodir.aspx?contentid=cont2011052335&tcategoryid=tcat2010060835'
p1208
aS'http://im.nju.edu.cn/shownodir.aspx?contentid=cont2011060216&tcategoryid=tcat2010060835'
p1209
aS'http://im.nju.edu.cn/shownodir.aspx?contentid=cont2011052325&tcategoryid=tcat2010060835'
p1210
aS'http://im.nju.edu.cn/shownodir.aspx?contentid=cont2011031125&tcategoryid=tcat2010060835'
p1211
aS'http://im.nju.edu.cn/shownodir.aspx?contentid=cont2011060926&tcategoryid=tcat2010060835'
p1212
atRp1213
sg51
g8
((lp1214
g521
atRp1215
sg323
g8
((ltRp1216
sS'http://im.nju.edu.cn/showonedir.aspx?contentid=cont2010062837&parentid=bcat2010062816&tcategoryid=tcat20100608145'
p1217
g8
((ltRp1218
sg707
g8
((ltRp1219
sg524
g8
((lp1220
g793
atRp1221
sg350
g8
((ltRp1222
sg717
g8
((ltRp1223
sg981
g8
((lp1224
S'http://im.nju.edu.cn/shownodir.aspx?contentid=cont2012112226&tcategoryid=tcat2010060835'
p1225
aS'http://im.nju.edu.cn/shownodir.aspx?contentid=cont2012121717&tcategoryid=tcat2010060835'
p1226
aS'http://im.nju.edu.cn/shownodir.aspx?contentid=cont2013040610&tcategoryid=tcat2010060835'
p1227
ag224
aS'http://im.nju.edu.cn/shownodir.aspx?contentid=cont2013022623&tcategoryid=tcat2010060835'
p1228
aS'http://im.nju.edu.cn/shownodir.aspx?contentid=cont2012111911&tcategoryid=tcat2010060835'
p1229
aS'http://im.nju.edu.cn/shownodir.aspx?contentid=cont2013031910&tcategoryid=tcat2010060835'
p1230
aS'http://im.nju.edu.cn/shownodir.aspx?contentid=cont2013040628&tcategoryid=tcat2010060835'
p1231
aS'http://im.nju.edu.cn/shownodir.aspx?contentid=cont2012112213&tcategoryid=tcat2010060835'
p1232
aS'http://im.nju.edu.cn/shownodir.aspx?contentid=cont2013031412&tcategoryid=tcat2010060835'
p1233
aS'http://im.nju.edu.cn/shownodir.aspx?contentid=cont2013022816&tcategoryid=tcat2010060835'
p1234
atRp1235
sg931
g8
((lp1236
g1054
aS'http://im.nju.edu.cn/shownodir.aspx?contentid=cont2010062922&tcategoryid=tcat2010060876'
p1237
atRp1238
sg177
g8
((ltRp1239
sg101
g8
((lp1240
S'http://im.nju.edu.cn/showonedir.aspx?categoryid=bcat2010062816&page=1&parentid=bcat2010062816&tcategoryid=tcat20100608145'
p1241
aS'http://im.nju.edu.cn/showonedir.aspx?contentid=cont2010062844&parentid=bcat2010062816&tcategoryid=tcat20100608145'
p1242
ag1217
aS'http://im.nju.edu.cn/showonedir.aspx?contentid=cont2010062822&parentid=bcat2010062816&tcategoryid=tcat20100608145'
p1243
atRp1244
sg440
g8
((lp1245
S'http://im.nju.edu.cn/labcenter/WD.aspx?Page=1&f=2'
p1246
ag361
aS'http://im.nju.edu.cn/labcenter/HD.aspx?q=4'
p1247
aS'http://im.nju.edu.cn/labcenter/HD.aspx?q=1'
p1248
aS'http://im.nju.edu.cn/labcenter/HD.aspx?q=3'
p1249
aS'http://im.nju.edu.cn/labcenter/HD.aspx?q=2'
p1250
aS'http://im.nju.edu.cn/labcenter/HD.aspx?q=5'
p1251
atRp1252
sg1152
g8
((lp1253
S'http://im.nju.edu.cn/labcenter/HD.aspx?q=32'
p1254
ag399
aS'http://im.nju.edu.cn/labcenter/HD.aspx?q=31'
p1255
aS'http://im.nju.edu.cn/labcenter/WD.aspx?Page=1&f=1'
p1256
aS'http://im.nju.edu.cn/labcenter/HD.aspx?q=30'
p1257
atRp1258
sg144
g8
((ltRp1259
sg393
g8
((ltRp1260
sg616
g8
((ltRp1261
sg519
g8
((lp1262
g865
atRp1263
sg1132
g8
((lp1264
g872
atRp1265
sg500
g8
((lp1266
S'http://im.nju.edu.cn/shownodir.aspx?contentid=cont20100629128&tcategoryid=tcat2010060846'
p1267
ag1116
aS'http://im.nju.edu.cn/shownodir.aspx?contentid=cont20100629145&tcategoryid=tcat2010060846'
p1268
aS'http://im.nju.edu.cn/shownodir.aspx?contentid=cont20100629156&tcategoryid=tcat2010060846'
p1269
aS'http://im.nju.edu.cn/shownodir.aspx?contentid=cont20100629238&tcategoryid=tcat2010060846'
p1270
aS'http://im.nju.edu.cn/shownodir.aspx?contentid=cont2010062963&tcategoryid=tcat2010060846'
p1271
aS'http://im.nju.edu.cn/shownodir.aspx?contentid=cont20100629110&tcategoryid=tcat2010060846'
p1272
aS'http://im.nju.edu.cn/shownodir.aspx?contentid=cont20100629102&tcategoryid=tcat2010060846'
p1273
aS'http://im.nju.edu.cn/shownodir.aspx?contentid=cont20100629196&tcategoryid=tcat2010060846'
p1274
aS'http://im.nju.edu.cn/shownodir.aspx?contentid=cont20100629205&tcategoryid=tcat2010060846'
p1275
atRp1276
sg653
g8
((ltRp1277
sg568
g8
((lp1278
S'http://im.nju.edu.cn/shownodir.aspx?contentid=cont2014111016&tcategoryid=tcat2010060835'
p1279
aS'http://im.nju.edu.cn/shownodir.aspx?contentid=cont2014121618&tcategoryid=tcat2010060835'
p1280
aS'http://im.nju.edu.cn/shownodir.aspx?contentid=cont2014021817&tcategoryid=tcat2010060835'
p1281
aS'http://im.nju.edu.cn/shownodir.aspx?categoryid=tcat2010060835&page=1&tcategoryid=tcat2010060835'
p1282
aS'http://im.nju.edu.cn/shownodir.aspx?contentid=cont2014060625&tcategoryid=tcat2010060835'
p1283
aS'http://im.nju.edu.cn/shownodir.aspx?contentid=cont2014061420&tcategoryid=tcat2010060835'
p1284
aS'http://im.nju.edu.cn/shownodir.aspx?categoryid=tcat2010060835&page=2&tcategoryid=tcat2010060835'
p1285
aS'http://im.nju.edu.cn/shownodir.aspx?contentid=cont2014061413&tcategoryid=tcat2010060835'
p1286
aS'http://im.nju.edu.cn/shownodir.aspx?categoryid=tcat2010060835&page=20&tcategoryid=tcat2010060835'
p1287
aS'http://im.nju.edu.cn/shownodir.aspx?contentid=cont2014101216&tcategoryid=tcat2010060835'
p1288
aS'http://im.nju.edu.cn/shownodir.aspx?contentid=cont2013120312&tcategoryid=tcat2010060835'
p1289
aS'http://im.nju.edu.cn/shownodir.aspx?contentid=cont2014060615&tcategoryid=tcat2010060835'
p1290
aS'http://im.nju.edu.cn/shownodir.aspx?contentid=cont2014060513&tcategoryid=tcat2010060835'
p1291
atRp1292
sg642
g8
((lp1293
g666
ag711
atRp1294
sg1285
g8
((lp1295
S'http://im.nju.edu.cn/shownodir.aspx?contentid=cont2013102137&tcategoryid=tcat2010060835'
p1296
ag974
aS'http://im.nju.edu.cn/shownodir.aspx?contentid=cont2013102917&tcategoryid=tcat2010060835'
p1297
aS'http://im.nju.edu.cn/shownodir.aspx?contentid=cont2013062012&tcategoryid=tcat2010060835'
p1298
aS'http://im.nju.edu.cn/shownodir.aspx?contentid=cont2013111816&tcategoryid=tcat2010060835'
p1299
aS'http://im.nju.edu.cn/shownodir.aspx?contentid=cont2013103014&tcategoryid=tcat2010060835'
p1300
aS'http://im.nju.edu.cn/shownodir.aspx?contentid=cont2013090915&tcategoryid=tcat2010060835'
p1301
aS'http://im.nju.edu.cn/shownodir.aspx?contentid=cont2013060219&tcategoryid=tcat2010060835'
p1302
aS'http://im.nju.edu.cn/shownodir.aspx?contentid=cont2013102110&tcategoryid=tcat2010060835'
p1303
aS'http://im.nju.edu.cn/shownodir.aspx?contentid=cont2013102128&tcategoryid=tcat2010060835'
p1304
aS'http://im.nju.edu.cn/shownodir.aspx?contentid=cont2013061246&tcategoryid=tcat2010060835'
p1305
atRp1306
sg280
g8
((lp1307
g90
aS'http://im.nju.edu.cn/labcenter/ShowNews.aspx?N_Id=24&NewsType=8&TypeNum=53'
p1308
aS'http://im.nju.edu.cn/labcenter/ShowNews.aspx?N_Id=25&NewsType=8&TypeNum=53'
p1309
aS'http://im.nju.edu.cn/labcenter/ShowNews.aspx?N_Id=23&NewsType=8&TypeNum=53'
p1310
aS'http://im.nju.edu.cn/labcenter/Common.aspx?NewsType=8&TypeNum=53'
p1311
ag996
ag173
ag179
atRp1312
sg1287
g8
((lp1313
S'http://im.nju.edu.cn/shownodir.aspx?contentid=cont2010062432&tcategoryid=tcat2010060835'
p1314
ag829
aS'http://im.nju.edu.cn/shownodir.aspx?contentid=cont2010062323&tcategoryid=tcat2010060835'
p1315
aS'http://im.nju.edu.cn/shownodir.aspx?contentid=cont2010062318&tcategoryid=tcat2010060835'
p1316
atRp1317
sg6
(dp1318
S'http://im.nju.edu.cn/showstaff.aspx?departmentid=7&id=42&titleid=1'
p1319
(dp1320
sS'http://im.nju.edu.cn/showstaff.aspx?titleid=1'
p1321
(dp1322
S'http://im.nju.edu.cn/showstaff.aspx?departmentid=0&page=1&titleid=1'
p1323
I1
sS'http://im.nju.edu.cn/showstaff.aspx?departmentid=0&page=2&titleid=1'
p1324
I1
ssS'http://im.nju.edu.cn/showstaff.aspx?departmentid=4&id=34&titleid=4'
p1325
(dp1326
sS'http://im.nju.edu.cn/showstaff.aspx?titleid=7'
p1327
(dp1328
S'http://im.nju.edu.cn/showstaff.aspx?departmentid=2&id=17&titleid=7'
p1329
I1
sS'http://im.nju.edu.cn/showstaff.aspx?departmentid=0&page=1&titleid=7'
p1330
I1
sS'http://im.nju.edu.cn/showstaff.aspx?departmentid=1&id=61&titleid=7'
p1331
I1
sS'http://im.nju.edu.cn/showstaff.aspx?departmentid=1&id=38&titleid=7'
p1332
I1
sS'http://im.nju.edu.cn/showstaff.aspx?departmentid=10&id=64&titleid=7'
p1333
I1
sS'http://im.nju.edu.cn/showstaff.aspx?departmentid=8&id=47&titleid=7'
p1334
I1
ssS'http://im.nju.edu.cn/showstaff.aspx?titleid=4'
p1335
(dp1336
S'http://im.nju.edu.cn/showstaff.aspx?departmentid=0&page=1&titleid=4'
p1337
I1
ssS'http://im.nju.edu.cn/showstaff.aspx?departmentid=3&id=7&titleid=1'
p1338
(dp1339
sS'http://im.nju.edu.cn/showstaff.aspx?departmentid=7&id=40&titleid=4'
p1340
(dp1341
sS'http://im.nju.edu.cn/showstaff.aspx?departmentid=3&id=33&titleid=4'
p1342
(dp1343
sS'http://im.nju.edu.cn/showstaff.aspx?departmentid=6&id=15&titleid=4'
p1344
(dp1345
sg1337
(dp1346
sS'http://im.nju.edu.cn/showstaff.aspx?departmentid=1&id=58&titleid=4'
p1347
(dp1348
sS'http://im.nju.edu.cn/showstaff.aspx?titleid=10'
p1349
(dp1350
S'http://im.nju.edu.cn/showstaff.aspx?departmentid=0&page=1&titleid=10'
p1351
I1
ssS'http://im.nju.edu.cn/showstaff.aspx?departmentid=12&id=56&titleid=1'
p1352
(dp1353
sg1333
(dp1354
sS'http://im.nju.edu.cn/showstaff.aspx?departmentid=3&id=20&titleid=1'
p1355
(dp1356
sS'http://im.nju.edu.cn/showstaff.aspx?departmentid=10&id=65&titleid=7'
p1357
(dp1358
sS'http://im.nju.edu.cn/showstaff.aspx?departmentid=1&id=10&titleid=1'
p1359
(dp1360
sS'http://im.nju.edu.cn/showstaff.aspx?departmentid=9&id=66&titleid=10'
p1361
(dp1362
sg1323
(dp1363
sg1329
(dp1364
sS'http://im.nju.edu.cn/showstaff.aspx?departmentid=3&id=39&titleid=4'
p1365
(dp1366
sS'http://im.nju.edu.cn/showstaff.aspx?departmentid=2&id=45&titleid=1'
p1367
(dp1368
sS'http://im.nju.edu.cn/showstaff.aspx?departmentid=7&id=59&titleid=4'
p1369
(dp1370
sS'http://im.nju.edu.cn/showstaff.aspx?departmentid=1&id=37&titleid=4'
p1371
(dp1372
sg1330
(dp1373
sS'http://im.nju.edu.cn/showstaff.aspx'
p1374
(dp1375
g1321
I1
sg1325
I1
sg1327
I1
sg1335
I1
sg1338
I1
sg1342
I1
sg1344
I1
sg1349
I1
sg1352
I1
sg1357
I1
sg1361
I1
sS'http://im.nju.edu.cn/showstaff.aspx?departmentid=0&page=1&titleid=0'
p1376
I1
sS'http://im.nju.edu.cn/showstaff.aspx?departmentid=1&id=29&titleid=1'
p1377
I1
sS'http://im.nju.edu.cn/showstaff.aspx?departmentid=1&id=55&titleid=1'
p1378
I1
sS'http://im.nju.edu.cn/showstaff.aspx?departmentid=12&id=24&titleid=7'
p1379
I1
sS'http://im.nju.edu.cn/showstaff.aspx?departmentid=10&id=26&titleid=7'
p1380
I1
sS'http://im.nju.edu.cn/showstaff.aspx?departmentid=4&id=21&titleid=1'
p1381
I1
sS'http://im.nju.edu.cn/showstaff.aspx?departmentid=6&id=28&titleid=1'
p1382
I1
sS'http://im.nju.edu.cn/showstaff.aspx?departmentid=4&id=31&titleid=4'
p1383
I1
sS'http://im.nju.edu.cn/showstaff.aspx?departmentid=5&id=6&titleid=4'
p1384
I1
sS'http://im.nju.edu.cn/showstaff.aspx?departmentid=2&id=22&titleid=4'
p1385
I1
sS'http://im.nju.edu.cn/showstaff.aspx?departmentid=2&id=25&titleid=1'
p1386
I1
sS'http://im.nju.edu.cn/showstaff.aspx?departmentid=11&id=57&titleid=1'
p1387
I1
sS'http://im.nju.edu.cn/showstaff.aspx?departmentid=1&id=18&titleid=4'
p1388
I1
sS'http://im.nju.edu.cn/showstaff.aspx?departmentid=3&id=27&titleid=1'
p1389
I1
sS'http://im.nju.edu.cn/showstaff.aspx?departmentid=0&page=3&titleid=0'
p1390
I1
sS'http://im.nju.edu.cn/showstaff.aspx?departmentid=0&page=2&titleid=0'
p1391
I1
ssg1377
(dp1392
sg1378
(dp1393
sg1379
(dp1394
sS'http://im.nju.edu.cn/showstaff.aspx?departmentid=2&id=5&titleid=1'
p1395
(dp1396
sg1380
(dp1397
sg2
(dp1398
g1374
I1
ssS'http://im.nju.edu.cn/showstaff.aspx?departmentid=1&id=11&titleid=4'
p1399
(dp1400
sS'http://im.nju.edu.cn/showstaff.aspx?departmentid=1&id=12&titleid=4'
p1401
(dp1402
sS'http://im.nju.edu.cn/showstaff.aspx?departmentid=1&id=62&titleid=1'
p1403
(dp1404
sS'http://im.nju.edu.cn/showstaff.aspx?departmentid=4&id=9&titleid=1'
p1405
(dp1406
sg1389
(dp1407
sg1386
(dp1408
sS'http://im.nju.edu.cn/showstaff.aspx?departmentid=6&id=23&titleid=4'
p1409
(dp1410
sg1381
(dp1411
sS'http://im.nju.edu.cn/showstaff.aspx?departmentid=1&id=36&titleid=1'
p1412
(dp1413
sg1331
(dp1414
sg1376
(dp1415
sg1332
(dp1416
sg1384
(dp1417
sS'http://im.nju.edu.cn/showstaff.aspx?departmentid=2&id=16&titleid=4'
p1418
(dp1419
sg1385
(dp1420
sS'http://im.nju.edu.cn/showstaff.aspx?departmentid=6&id=35&titleid=1'
p1421
(dp1422
sg1334
(dp1423
sg1382
(dp1424
sS'http://im.nju.edu.cn/showstaff.aspx?departmentid=4&id=41&titleid=1'
p1425
(dp1426
sS'http://im.nju.edu.cn/showstaff.aspx?departmentid=5&id=46&titleid=4'
p1427
(dp1428
sg1383
(dp1429
sS'http://im.nju.edu.cn/showstaff.aspx?departmentid=1&id=1&titleid=1'
p1430
(dp1431
sg1387
(dp1432
sg1388
(dp1433
sS'http://im.nju.edu.cn/showstaff.aspx?departmentid=5&id=13&titleid=1'
p1434
(dp1435
sS'http://im.nju.edu.cn/showstaff.aspx?departmentid=7&id=63&titleid=1'
p1436
(dp1437
sS'http://im.nju.edu.cn/showstaff.aspx?departmentid=3&id=14&titleid=1'
p1438
(dp1439
sg1351
(dp1440
sS'http://im.nju.edu.cn/showstaff.aspx?departmentid=1&id=8&titleid=1'
p1441
(dp1442
sg1390
(dp1443
g1359
I1
sg1418
I1
sg1367
I1
sg1436
I1
sg1347
I1
sg1441
I1
sS'http://im.nju.edu.cn/showstaff.aspx?departmentid=3&id=43&titleid=1'
p1444
I1
sS'http://im.nju.edu.cn/showstaff.aspx?departmentid=7&id=19&titleid=1'
p1445
I1
sg1399
I1
ssg1444
(dp1446
sg1445
(dp1447
sg1391
(dp1448
g1401
I1
sg1319
I1
sg1365
I1
sg1405
I1
sg1425
I1
sg1427
I1
sg1403
I1
sg1340
I1
sg1430
I1
sg1369
I1
sg1421
I1
sg1434
I1
sg1371
I1
sg1438
I1
sg1395
I1
sg1409
I1
sg1355
I1
sg1412
I1
ssg1324
(dp1449
s(dp1450
g182
g8
((lp1451
S'http://www.changedu.com'
p1452
atRp1453
sS'http://114.212.192.22:90/book/book.do?actionType=view&bean.id=3630&pageFrom=commonList'
p1454
g8
((ltRp1455
sg283
g8
((lp1456
S'http://www.changedu.com'
p1457
atRp1458
sg727
g8
((lp1459
S'http://cns.med.tsinghua.edu.cn'
p1460
atRp1461
sg256
g8
((lp1462
S'http://www.changedu.com'
p1463
atRp1464
sS'http://www.cutech.edu.cn/cn/zxgz/2013/03/1354173588707562.htm'
p1465
g8
((ltRp1466
sg965
g8
((lp1467
S'http://114.212.192.22:90/book/book.do?actionType=view&bean.id=3624&pageFrom=commonList'
p1468
ag1454
aS'http://114.212.192.22:90/book/book.do?actionType=view&bean.id=3632&pageFrom=commonList'
p1469
aS'http://114.212.192.22:90/book/book.do?actionType=view&bean.id=3622&pageFrom=commonList'
p1470
aS'http://114.212.192.22:90/book/book.do?actionType=view&bean.id=3631&pageFrom=commonList'
p1471
aS'http://114.212.192.22:90/book/book.do?actionType=view&bean.id=3627&pageFrom=commonList'
p1472
aS'http://114.212.192.22:90/book/book.do?actionType=view&bean.id=3625&pageFrom=commonList'
p1473
aS'http://product.dangdang.com/product.aspx?product_id=22786610'
p1474
aS'http://114.212.192.22:90/book/book.do?actionType=view&bean.id=3626&pageFrom=commonList'
p1475
aS'http://www.changedu.com'
p1476
aS'http://114.212.192.22:90/book/book.do?actionType=view&bean.id=3629&pageFrom=commonList'
p1477
atRp1478
sg966
g8
((lp1479
S'http://www.changedu.com'
p1480
atRp1481
sg967
g8
((lp1482
S'http://www.changedu.com'
p1483
atRp1484
sg135
g8
((lp1485
S'http://www.changedu.com'
p1486
atRp1487
sg1311
g8
((lp1488
S'http://www.changedu.com'
p1489
atRp1490
sg996
g8
((lp1491
S'http://www.changedu.com'
p1492
atRp1493
sg358
g8
((lp1494
S'http://www.ucd.ie/graduatestudies/coursefinder'
p1495
atRp1496
sg179
g8
((lp1497
S'http://www.changedu.com'
p1498
atRp1499
sg1080
g8
((lp1500
S'http://yz.chsi.com.cn/z/yz2011wb/index.jsp'
p1501
aS'http://wb.chsi.com.cn/apply/pages/view_gonggao.jsp'
p1502
aS'http://yz.chsi.com.cn'
p1503
aS'http://yz.chsi.com.cn/kyzx/other/201009/20100914/120575287.html'
p1504
aS'http://yz.chsi.com.cn/kyzx/zcdh/200808/20080827/8056136.html'
p1505
atRp1506
sg200
g8
((lp1507
S'http://www.changedu.com'
p1508
atRp1509
sS'http://sim.whu.edu.cn/csim2014'
p1510
g8
((ltRp1511
sg503
g8
((lp1512
S'http://www.gzxf.gov.cn'
p1513
aS'http://www.ntgz.gov.cn'
p1514
atRp1515
sg16
g8
((lp1516
S'http://irm.nju.edu.cn/csim2011/download.jsp'
p1517
atRp1518
sg990
g8
((lp1519
S'http://grawww.nju.edu.cn/mis/ygraphy/index.asp'
p1520
atRp1521
sg259
g8
((lp1522
S'http://www.changedu.com'
p1523
atRp1524
sg1086
g8
((lp1525
S'http://bbs.nju.edu.cn'
p1526
aS'http://grawww.nju.edu.cn/view.asp?id=407'
p1527
aS'http://grawww.nju.edu.cn/content/zs/ssjz.asp?depno=014'
p1528
aS'http://grawww.nju.edu.cn/content/zs1.htm'
p1529
atRp1530
sS'http://im.nju.edu.cn/dpteval'
p1531
g8
((lp1532
S'http://zzb.nju.edu.cn:80/html/bmjj'
p1533
aS'http://zzb.nju.edu.cn:80'
p1534
aS'http://eval.nju.edu.cn/midceval'
p1535
atRp1536
sg292
g8
((lp1537
S'http://www.changedu.com'
p1538
atRp1539
sg293
g8
((lp1540
S'http://www.changedu.com'
p1541
atRp1542
sS'http://www.jstd.gov.cn'
p1543
g8
((ltRp1544
sg296
g8
((lp1545
S'http://www.changedu.com'
p1546
atRp1547
sg942
g8
((lp1548
S'http://www.changedu.com'
p1549
atRp1550
sS'http://skch.nju.edu.cn/iwms/show.aspx?cid=11&id=1270'
p1551
g8
((ltRp1552
sg1272
g8
((lp1553
S'http://rczp.usst.edu.cn/s/42/t/131/2f/e2/info12258.htm'
p1554
atRp1555
sg943
g8
((lp1556
S'http://www.changedu.com'
p1557
atRp1558
sg944
g8
((lp1559
S'http://www.changedu.com'
p1560
atRp1561
sg1070
g8
((lp1562
S'http://www.insc.tohoku.ac.jp/cms/index-e.cgi'
p1563
atRp1564
sg1246
g8
((lp1565
S'http://www.changedu.com'
p1566
atRp1567
sg1256
g8
((lp1568
S'http://www.changedu.com'
p1569
atRp1570
sS'http://grawww.nju.edu.cn/content/zs/ssjz.htm'
p1571
g8
((ltRp1572
sg506
g8
((lp1573
S'http://www.changedu.com'
p1574
atRp1575
sg952
g8
((lp1576
S'http://www.changedu.com'
p1577
atRp1578
sg1274
g8
((lp1579
S'http://cns.med.tsinghua.edu.cn'
p1580
atRp1581
sg634
g8
((lp1582
S'http://gl.jlu.edu.cn/manage/news_detail.php?cid=108&id=1953'
p1583
atRp1584
sg270
g8
((lp1585
S'http://www.changedu.com'
p1586
atRp1587
sg272
g8
((lp1588
S'http://www.changedu.com'
p1589
atRp1590
sg605
g8
((lp1591
S'http://www.changedu.com'
p1592
atRp1593
sg610
g8
((lp1594
S'http://www.changedu.com'
p1595
atRp1596
sg608
g8
((lp1597
S'http://www.changedu.com'
p1598
atRp1599
sg276
g8
((lp1600
S'http://www.changedu.com'
p1601
atRp1602
sg401
g8
((lp1603
S'http://www.changedu.com'
p1604
atRp1605
sg402
g8
((lp1606
S'http://www.changedu.com'
p1607
atRp1608
sg403
g8
((lp1609
S'http://www.changedu.com'
p1610
atRp1611
sg404
g8
((lp1612
S'http://www.changedu.com'
p1613
atRp1614
sg405
g8
((lp1615
S'http://www.changedu.com'
p1616
atRp1617
sg1254
g8
((lp1618
S'http://www.changedu.com'
p1619
atRp1620
sg1255
g8
((lp1621
S'http://www.changedu.com'
p1622
atRp1623
sg1257
g8
((lp1624
S'http://www.changedu.com'
p1625
atRp1626
sg803
g8
((lp1627
S'http://www.changedu.com'
p1628
atRp1629
sg406
g8
((lp1630
S'http://www.changedu.com'
p1631
atRp1632
sg1382
g8
((lp1633
S'http://www.sciencenet.cn/blog/huguangwei.htm'
p1634
atRp1635
sS'http://www.js-skl.org.cn'
p1636
g8
((ltRp1637
sg982
g8
((lp1638
S'http://www.ec.js.edu.cn/module/download/downfile.jsp?classid=0&filename=1304031541119029069.DOC'
p1639
aS'http://www.ec.js.edu.cn/module/download/downfile.jsp?classid=0&filename=1304031540249929774.DOC'
p1640
aS'http://www.ec.js.edu.cn/module/download/downfile.jsp?classid=0&filename=1304031540494739334.DOC'
p1641
aS'http://www.ec.js.edu.cn/module/download/downfile.jsp?classid=0&filename=1304031541368561620.XLS'
p1642
aS'http://skch.nju.edu.cn/iwms/show.aspx?cid=11&id=1266'
p1643
atRp1644
sg20
g8
((lp1645
S'http://www.npopss-cn.gov.cn'
p1646
atRp1647
sg1000
g8
((lp1648
S'http://www.changedu.com'
p1649
atRp1650
sg266
g8
((lp1651
S'http://www.changedu.com'
p1652
atRp1653
sS'http://www.auckland.ac.nz/uoa/is-chinese-scholarship-council-scholarships'
p1654
g8
((ltRp1655
sS'http://im.nju.edu.cn/labcenter'
p1656
g8
((lp1657
S'http://www.changedu.com'
p1658
atRp1659
sg269
g8
((lp1660
S'http://www.changedu.com'
p1661
atRp1662
sg1309
g8
((lp1663
S'http://www.changedu.com'
p1664
atRp1665
sg252
g8
((lp1666
S'http://www.changedu.com'
p1667
atRp1668
sg1658
g8
((ltRp1669
sS'http://210.14.113.112:8031/science/index.jsp'
p1670
g8
((ltRp1671
sg1012
g8
((lp1672
S'http://cpc.people.com.cn/GB/219457/219506/219508/219529/14640286.html'
p1673
aS'http://www.npopss-cn.gov.cn/GB/219506/219508/219529/15937840.html'
p1674
aS'http://cpc.people.com.cn/GB/219457/219506/219508/219529/14640293.html'
p1675
aS'http://cpc.people.com.cn/GB/219457/219506/219508/219529/14640289.html'
p1676
aS'http://cpc.people.com.cn/GB/219457/219506/219508/219529/14640291.html'
p1677
aS'http://cpc.people.com.cn/GB/219457/219506/219508/219529/14640279.html'
p1678
aS'http://cpc.people.com.cn/GB/219457/219506/219508/219529/14640281.html'
p1679
aS'http://cpc.people.com.cn/GB/219457/219506/219508/219529/14640290.html'
p1680
aS'http://cpc.people.com.cn/GB/219457/219506/219508/219529/14640288.html'
p1681
aS'http://cpc.people.com.cn/GB/219457/219506/219508/219529/14640296.html'
p1682
aS'http://cpc.people.com.cn/GB/219457/219506/219508/219529/14640294.html'
p1683
aS'http://cpc.people.com.cn/GB/219457/219506/219508/219529/14640285.html'
p1684
aS'http://cpc.people.com.cn/GB/219457/219506/219508/219529/14640283.html'
p1685
aS'http://cpc.people.com.cn/GB/219457/219506/219508/219529/14640295.html'
p1686
aS'http://cpc.people.com.cn/GB/219457/219506/219508/219529/14640292.html'
p1687
aS'http://cpc.people.com.cn/GB/219457/219506/219508/219529/14640282.html'
p1688
aS'http://cpc.people.com.cn/GB/219457/219506/219508/219529/14640284.html'
p1689
aS'http://cpc.people.com.cn/GB/219457/219506/219508/219529/14640287.html'
p1690
aS'http://cpc.people.com.cn/GB/219457/219506/219508/219529/14640280.html'
p1691
atRp1692
sS'http://yz.chsi.com.cn/kyzx/other/201009/20100914/120575287.html'
p1693
g8
((ltRp1694
sg299
g8
((lp1695
S'http://www.changedu.com'
p1696
atRp1697
sg173
g8
((lp1698
S'http://www.changedu.com'
p1699
atRp1700
sg175
g8
((lp1701
S'http://www.changedu.com'
p1702
atRp1703
sg609
g8
((lp1704
S'http://www.changedu.com'
p1705
atRp1706
sg606
g8
((lp1707
S'http://www.changedu.com'
p1708
atRp1709
sg607
g8
((lp1710
S'http://www.changedu.com'
p1711
atRp1712
sg1563
g8
((ltRp1713
sg1134
g8
((lp1714
S'http://www.changedu.com'
p1715
atRp1716
sg291
g8
((lp1717
S'http://www.changedu.com'
p1718
atRp1719
sg823
g8
((lp1720
S'http://www.ucd.ie/graduatestudies/coursefinder'
p1721
atRp1722
sg176
g8
((lp1723
S'http://www.changedu.com'
p1724
atRp1725
sS'http://www.gznc.edu.cn'
p1726
g8
((ltRp1727
sg972
g8
((lp1728
S'http://www.changedu.com'
p1729
atRp1730
sg747
g8
((lp1731
S'http://grawww.nju.edu.cn/mis/ygraphy/news_detail.asp?news_id=6'
p1732
aS'http://grawww.nju.edu.cn/content/gjjl3.htm'
p1733
atRp1734
sg331
g8
((lp1735
S'http://www.changedu.com'
p1736
atRp1737
sS'http://202.119.47.6/QK/93480A/index.asp?CSID=%7BA5B75A27-07E8-48F7-B3C1-42672E667800%7D'
p1738
g8
((ltRp1739
sg912
g8
((lp1740
S'http://www.changedu.com'
p1741
atRp1742
sg115
g8
((lp1743
S'http://www.archives.sh.cn/daes/fzlt/200702021344.htm.'
p1744
atRp1745
sg285
g8
((lp1746
S'http://www.changedu.com'
p1747
atRp1748
sg1132
g8
((lp1749
S'http://grawww.nju.edu.cn/content/zs2.htm'
p1750
aS'http://grawww.nju.edu.cn/content/zs/bsjz.htm'
p1751
atRp1752
sg464
g8
((lp1753
S'http://www.changedu.com'
p1754
atRp1755
sg533
g8
((lp1756
S'http://gl.jlu.edu.cn/manage/news_detail.php?cid=108&id=1953'
p1757
atRp1758
sg1517
g8
((ltRp1759
sg26
g8
((lp1760
S'http://www.changedu.com'
p1761
atRp1762
sg31
g8
((lp1763
S'http://www.changedu.com'
p1764
atRp1765
sg36
g8
((lp1766
S'http://www.changedu.com'
p1767
atRp1768
sg249
g8
((lp1769
S'http://www.changedu.com'
p1770
atRp1771
sg1153
g8
((lp1772
S'http://www.changedu.com'
p1773
atRp1774
sg330
g8
((lp1775
S'http://www.changedu.com'
p1776
atRp1777
sg28
g8
((lp1778
S'http://www.changedu.com'
p1779
atRp1780
sg1367
g8
((lp1781
g1738
atRp1782
sg165
g8
((lp1783
S'http://www.changedu.com'
p1784
aS'http://jfx.nju.edu.cn/sbweb'
p1785
atRp1786
sg435
g8
((lp1787
S'http://www.changedu.com'
p1788
atRp1789
sg947
g8
((lp1790
S'http://www.changedu.com'
p1791
atRp1792
sS'http://www.ischools.org/iConference13/2013index'
p1793
g8
((ltRp1794
sg265
g8
((lp1795
S'http://www.changedu.com'
p1796
atRp1797
sg203
g8
((lp1798
S'http://www.changedu.com'
p1799
atRp1800
sg305
g8
((lp1801
S'http://www.changedu.com'
p1802
atRp1803
sS'http://dawww.nju.edu.cn/xwz'
p1804
g8
((ltRp1805
sg312
g8
((lp1806
S'http://www.changedu.com'
p1807
atRp1808
sS'http://skch.nju.edu.cn/iwms/show.aspx?cid=11&id=1160'
p1809
g8
((ltRp1810
sg250
g8
((lp1811
S'http://www.changedu.com'
p1812
atRp1813
sg163
g8
((lp1814
S'http://www.changedu.com'
p1815
atRp1816
sg271
g8
((lp1817
S'http://www.changedu.com'
p1818
atRp1819
sg34
g8
((lp1820
S'http://www.changedu.com'
p1821
atRp1822
sg262
g8
((lp1823
S'http://www.changedu.com'
p1824
atRp1825
sg38
g8
((lp1826
S'http://www.changedu.com'
p1827
atRp1828
sg1757
g8
((ltRp1829
sg443
g8
((lp1830
S'http://www.changedu.com'
p1831
atRp1832
sg601
g8
((lp1833
g1804
atRp1834
sg998
g8
((lp1835
S'http://www.changedu.com'
p1836
atRp1837
sg2
g8
((lp1838
S'http://cssci.nju.edu.cn/'
p1839
aS'http://www.las.ac.cn'
p1840
aS'http://202.119.40.6/njuim/xueke'
p1841
aS'http://www.nju.edu.cn'
p1842
aS'http://www.saac.gov.cn'
p1843
aS'http://ibs.nankai.edu.cn'
p1844
aS'http://im.sysu.edu.cn'
p1845
aS'http://www.irm.cn'
p1846
aS'http://202.119.40.6/siss/index.php'
p1847
aS'http://www.nlc.gov.cn'
p1848
aS'http://www.im.pku.edu.cn'
p1849
aS'http://irm.nju.edu.cn/index.asp'
p1850
aS'http://sim.whu.edu.cn'
p1851
aS'http://www.istic.ac.cn'
p1852
atRp1853
sg316
g8
((lp1854
S'http://zzb.nju.edu.cn:80/html/bmjj'
p1855
aS'http://zzb.nju.edu.cn:80'
p1856
aS'http://eval.nju.edu.cn/midceval'
p1857
atRp1858
sg1643
g8
((ltRp1859
sg275
g8
((lp1860
S'http://www.changedu.com'
p1861
atRp1862
sg1270
g8
((lp1863
g1654
atRp1864
sS'https://www.conftool.com/iConference2014'
p1865
g8
((ltRp1866
sS'http://www.zlgc.edu.cn/Detail.aspx?Id=1313'
p1867
g8
((ltRp1868
sg253
g8
((lp1869
S'http://www.changedu.com'
p1870
atRp1871
sg736
g8
((lp1872
S'http://www.changedu.com'
p1873
atRp1874
sg487
g8
((lp1875
S'http://www.gzxf.gov.cn'
p1876
aS'http://www.ntgz.gov.cn'
p1877
atRp1878
sg436
g8
((lp1879
S'http://www.changedu.com'
p1880
atRp1881
sg437
g8
((lp1882
S'http://www.changedu.com'
p1883
atRp1884
sg438
g8
((lp1885
S'http://www.changedu.com'
p1886
atRp1887
sg311
g8
((lp1888
S'http://www.changedu.com'
p1889
atRp1890
sg1876
g8
((ltRp1891
sg313
g8
((lp1892
S'http://www.changedu.com'
p1893
atRp1894
sg1310
g8
((lp1895
S'http://www.changedu.com'
p1896
atRp1897
sg442
g8
((lp1898
S'http://www.changedu.com'
p1899
atRp1900
sg956
g8
((lp1901
S'http://www.changedu.com'
p1902
atRp1903
sg780
g8
((lp1904
S'http://www.changedu.com'
p1905
atRp1906
sg205
g8
((lp1907
S'http://www.changedu.com'
p1908
atRp1909
sg310
g8
((lp1910
S'http://www.changedu.com'
p1911
atRp1912
sg1228
g8
((lp1913
S'http://www.jstd.gov.cn/zwgk/tzggg/20130128/122543000.html'
p1914
aS'http://www.jskjjh.gov.cn'
p1915
aS'http://www.jstd.gov.cn/zwgk/tzggg/20130201/101137109.html'
p1916
aS'http://www.jstd.gov.cn/zwgk/tzggg/20130129/145525843.html'
p1917
aS'http://www.jsnsf.gov.cn/index.aspx'
p1918
aS'http://www.jstd.gov.cn/zwgk/tzggg/20130128/122825750.html'
p1919
aS'http://www.jstd.gov.cn/zwgk/tzggg/20130128/123444312.html'
p1920
aS'http://www.jstd.gov.cn/zwgk/tzggg/20130128/122221906.html'
p1921
aS'http://58.213.132.93/xqlm/login.asp'
p1922
aS'http://www.jstd.gov.cn/zwgk/tzggg/20130129/145358921.html'
p1923
aS'http://www.jstd.gov.cn/zwgk/tzggg/20130128/123130312.html'
p1924
aS'http://www.jstd.gov.cn/zwgk/tzggg/20130128/122406093.html'
p1925
atRp1926
sg979
g8
((lp1927
S'http://www.npopss-cn.gov.cn/n/2013/0228/c234662-20635098.html'
p1928
ag1551
atRp1929
sg945
g8
((lp1930
S'http://www.changedu.com'
p1931
atRp1932
sS'http://skch.nju.edu.cn'
p1933
g8
((ltRp1934
sg1069
g8
((lp1935
S'http://jw.nju.edu.cn'
p1936
atRp1937
sg286
g8
((lp1938
S'http://www.changedu.com'
p1939
atRp1940
sg40
g8
((lp1941
S'http://www.changedu.com'
p1942
atRp1943
sg281
g8
((lp1944
S'http://www.changedu.com'
p1945
atRp1946
sg361
g8
((lp1947
S'http://www.changedu.com'
p1948
atRp1949
sS'http://jwas3.nju.edu.cn:8080/jiaowu'
p1950
g8
((ltRp1951
sg949
g8
((lp1952
S'http://www.changedu.com'
p1953
atRp1954
sg948
g8
((lp1955
S'http://www.changedu.com'
p1956
atRp1957
sg950
g8
((lp1958
S'http://www.changedu.com'
p1959
atRp1960
sg1495
g8
((ltRp1961
sg951
g8
((lp1962
S'http://www.changedu.com'
p1963
atRp1964
sg777
g8
((lp1965
S'http://www.changedu.com'
p1966
atRp1967
sg1634
g8
((ltRp1968
sg970
g8
((lp1969
S'http://www.changedu.com'
p1970
atRp1971
sg1275
g8
((lp1972
S'http://www.gxtc.edu.cn'
p1973
atRp1974
sg827
g8
((lp1975
S'http://www.changedu.com'
p1976
atRp1977
sg584
g8
((lp1978
S'http://www.npopss-cn.gov.cn'
p1979
atRp1980
sg1232
g8
((lp1981
S'http://baike.baidu.com/view/15746.htm'
p1982
aS'http://baike.baidu.com/view/2920320.htm'
p1983
aS'http://baike.baidu.com/view/4175337.htm'
p1984
aS'http://baike.baidu.com/view/3669808.htm'
p1985
aS'http://baike.baidu.com/view/675834.htm'
p1986
aS'http://baike.baidu.com/view/964309.htm'
p1987
atRp1988
sg824
g8
((lp1989
S'http://yz.chsi.com.cn/z/yz2011wb/index.jsp'
p1990
aS'http://wb.chsi.com.cn/apply/pages/view_gonggao.jsp'
p1991
aS'http://yz.chsi.com.cn'
p1992
aS'http://yz.chsi.com.cn/kyzx/other/201009/20100914/120575287.html'
p1993
aS'http://yz.chsi.com.cn/kyzx/zcdh/200808/20080827/8056136.html'
p1994
atRp1995
sg986
g8
((lp1996
g1465
aS'http://www.paper.edu.cn'
p1997
atRp1998
sg329
g8
((lp1999
S'http://www.changedu.com'
p2000
atRp2001
sg39
g8
((lp2002
S'http://www.changedu.com'
p2003
atRp2004
sg440
g8
((lp2005
S'http://www.changedu.com'
p2006
atRp2007
sg1152
g8
((lp2008
S'http://www.changedu.com'
p2009
atRp2010
sg235
g8
((lp2011
g1809
atRp2012
sg287
g8
((lp2013
S'http://www.changedu.com'
p2014
atRp2015
sg290
g8
((lp2016
S'http://www.changedu.com'
p2017
atRp2018
sg581
g8
((lp2019
g1933
atRp2020
sg22
g8
((lp2021
S'http://www.changedu.com'
p2022
atRp2023
sg248
g8
((lp2024
S'http://www.changedu.com'
p2025
atRp2026
sg752
g8
((lp2027
g1670
atRp2028
sg725
g8
((lp2029
S'http://www.auckland.ac.nz/uoa/is-chinese-scholarship-council-scholarships'
p2030
atRp2031
sg960
g8
((lp2032
S'http://www.changedu.com'
p2033
atRp2034
sg247
g8
((lp2035
S'http://www.changedu.com'
p2036
atRp2037
sg961
g8
((lp2038
S'http://www.changedu.com'
p2039
atRp2040
sg962
g8
((lp2041
S'http://www.changedu.com'
p2042
atRp2043
sg92
g8
((lp2044
S'http://www.changedu.com'
p2045
atRp2046
sg255
g8
((lp2047
S'http://www.changedu.com'
p2048
atRp2049
sg183
g8
((lp2050
S'http://www.changedu.com'
p2051
atRp2052
sg1308
g8
((lp2053
S'http://www.changedu.com'
p2054
atRp2055
sg1682
g8
((ltRp2056
sS'http://www.sinoss.com'
p2057
g8
((ltRp2058
sg724
g8
((lp2059
S'http://www.apimc.cn'
p2060
atRp2061
sg273
g8
((lp2062
S'http://www.changedu.com'
p2063
atRp2064
sg600
g8
((lp2065
S'http://www.cdgdc.edu.cn/xwxxcj/10284'
p2066
atRp2067
sg1150
g8
((lp2068
S'http://www.changedu.com'
p2069
atRp2070
sg1151
g8
((lp2071
S'http://www.changedu.com'
p2072
atRp2073
sg19
g8
((lp2074
S'http://skch.nju.edu.cn'
p2075
atRp2076
sg1154
g8
((lp2077
S'http://www.changedu.com'
p2078
atRp2079
sg211
g8
((lp2080
S'http://www.changedu.com'
p2081
atRp2082
sg1155
g8
((lp2083
S'http://www.changedu.com'
p2084
atRp2085
sg1156
g8
((lp2086
S'http://www.changedu.com'
p2087
atRp2088
sg119
g8
((lp2089
S'http://sim.whu.edu.cn/csim2014'
p2090
atRp2091
sg133
g8
((lp2092
S'http://www.changedu.com'
p2093
atRp2094
sg1071
g8
((lp2095
S'http://abroadatau.american.edu'
p2096
atRp2097
sg159
g8
((lp2098
S'http://www.changedu.com'
p2099
atRp2100
sg160
g8
((lp2101
S'http://www.changedu.com'
p2102
atRp2103
sg161
g8
((lp2104
S'http://www.changedu.com'
p2105
atRp2106
sg328
g8
((lp2107
S'http://www.changedu.com'
p2108
atRp2109
sg632
g8
((lp2110
S'http://sim.whu.edu.cn/csim2014'
p2111
atRp2112
sg298
g8
((lp2113
S'http://www.changedu.com'
p2114
atRp2115
sg219
g8
((lp2116
S'http://grawww.nju.edu.cn/content/zs2.htm'
p2117
aS'http://grawww.nju.edu.cn/content/zs/bsjz.htm'
p2118
atRp2119
sg729
g8
((lp2120
S'http://rczp.usst.edu.cn/s/42/t/131/2f/e2/info12258.htm'
p2121
atRp2122
sg1015
g8
((lp2123
S'http://www.npopss-cn.gov.cn/GB/219468/16505661.html'
p2124
aS'http://www.npopss-cn.gov.cn'
p2125
atRp2126
sg399
g8
((lp2127
S'http://www.changedu.com'
p2128
atRp2129
sg1973
g8
((ltRp2130
sg493
g8
((lp2131
S'http://grawww.nju.edu.cn/content/zs1.htm'
p2132
ag1571
atRp2133
sg258
g8
((lp2134
S'http://www.changedu.com'
p2135
atRp2136
sS'http://www.npopss-cn.gov.cn'
p2137
g8
((ltRp2138
sg261
g8
((lp2139
S'http://www.changedu.com'
p2140
atRp2141
sg263
g8
((lp2142
S'http://www.changedu.com'
p2143
atRp2144
sg869
g8
((lp2145
S'http://irm.nju.edu.cn'
p2146
atRp2147
sg832
g8
((lp2148
g2137
atRp2149
sg971
g8
((lp2150
S'http://www.changedu.com'
p2151
atRp2152
sg1580
g8
((ltRp2153
sg1098
g8
((lp2154
S'http://www.gzxf.gov.cn'
p2155
aS'http://www.ntgz.gov.cn'
p2156
atRp2157
sg953
g8
((lp2158
S'http://www.changedu.com'
p2159
atRp2160
sg779
g8
((lp2161
S'http://www.changedu.com'
p2162
atRp2163
sg289
g8
((lp2164
S'http://www.changedu.com'
p2165
atRp2166
sg721
g8
((lp2167
S'http://www.gxtc.edu.cn'
p2168
atRp2169
sg563
g8
((lp2170
g1510
atRp2171
sS'http://www.csc.edu.cn/Chuguo/49b87f444c814f4bb5f52d2'
p2172
g8
((ltRp2173
sS'http://jw.nju.edu.cn'
p2174
g8
((ltRp2175
sg1534
g8
((ltRp2176
sg955
g8
((lp2177
S'http://www.changedu.com'
p2178
atRp2179
sg307
g8
((lp2180
S'http://www.changedu.com'
p2181
atRp2182
sg308
g8
((lp2183
S'http://www.changedu.com'
p2184
atRp2185
sg274
g8
((lp2186
S'http://www.changedu.com'
p2187
atRp2188
sg365
g8
((lp2189
S'http://www.changedu.com'
p2190
atRp2191
sg366
g8
((lp2192
S'http://www.changedu.com'
p2193
atRp2194
sg806
g8
((lp2195
S'http://www.changedu.com'
p2196
atRp2197
sg807
g8
((lp2198
S'http://www.changedu.com'
p2199
atRp2200
sg808
g8
((lp2201
S'http://www.changedu.com'
p2202
atRp2203
sg1268
g8
((lp2204
g1726
atRp2205
sg810
g8
((lp2206
S'http://www.changedu.com'
p2207
atRp2208
sg811
g8
((lp2209
S'http://www.changedu.com'
p2210
atRp2211
sg279
g8
((lp2212
S'http://www.changedu.com'
p2213
atRp2214
sg280
g8
((lp2215
S'http://www.changedu.com'
p2216
atRp2217
sg33
g8
((lp2218
S'http://www.changedu.com'
p2219
atRp2220
sg284
g8
((lp2221
S'http://www.changedu.com'
p2222
atRp2223
sg301
g8
((lp2224
S'http://www.changedu.com'
p2225
atRp2226
sg254
g8
((lp2227
S'http://www.changedu.com'
p2228
atRp2229
sg288
g8
((lp2230
S'http://www.changedu.com'
p2231
atRp2232
sg156
g8
((lp2233
S'http://www.changedu.com'
p2234
atRp2235
sg363
g8
((lp2236
S'http://www.changedu.com'
p2237
atRp2238
sg364
g8
((lp2239
S'http://www.changedu.com'
p2240
atRp2241
sg1271
g8
((lp2242
S'http://www.apimc.cn'
p2243
atRp2244
sg1251
g8
((lp2245
S'http://www.changedu.com'
p2246
atRp2247
sg1247
g8
((lp2248
S'http://www.changedu.com'
p2249
atRp2250
sg367
g8
((lp2251
S'http://www.changedu.com'
p2252
atRp2253
sg368
g8
((lp2254
S'http://www.changedu.com'
p2255
atRp2256
sg1248
g8
((lp2257
S'http://www.changedu.com'
p2258
atRp2259
sg1249
g8
((lp2260
S'http://www.changedu.com'
p2261
atRp2262
sg1250
g8
((lp2263
S'http://www.changedu.com'
p2264
atRp2265
sg297
g8
((lp2266
S'http://www.changedu.com'
p2267
atRp2268
sg430
g8
((lp2269
g1543
atRp2270
sg946
g8
((lp2271
S'http://www.changedu.com'
p2272
atRp2273
sg465
g8
((lp2274
S'http://www.changedu.com'
p2275
atRp2276
sg354
g8
((lp2277
S'http://yz.chsi.com.cn/z/yz2011wb/index.jsp'
p2278
aS'http://wb.chsi.com.cn/apply/pages/view_gonggao.jsp'
p2279
aS'http://yz.chsi.com.cn'
p2280
ag1693
aS'http://yz.chsi.com.cn/kyzx/zcdh/200808/20080827/8056136.html'
p2281
atRp2282
sg439
g8
((lp2283
S'http://www.changedu.com'
p2284
atRp2285
sg441
g8
((lp2286
S'http://www.changedu.com'
p2287
atRp2288
sg1304
g8
((lp2289
S'http://www.leydesdorff.net/list.htm'
p2290
atRp2291
sg627
g8
((lp2292
S'http://www.archives.sh.cn/daes/fzlt/200702021344.htm.'
p2293
atRp2294
sg537
g8
((lp2295
S'http://irm.nju.edu.cn'
p2296
atRp2297
sg264
g8
((lp2298
S'http://www.changedu.com'
p2299
atRp2300
sg267
g8
((lp2301
S'http://www.changedu.com'
p2302
atRp2303
sg2118
g8
((ltRp2304
sg42
g8
((lp2305
S'http://www.changedu.com'
p2306
atRp2307
sg774
g8
((lp2308
S'http://www.changedu.com'
p2309
atRp2310
sg1187
g8
((lp2311
S'http://grawww.nju.edu.cn/content/zs1.htm'
p2312
aS'http://grawww.nju.edu.cn/content/zs/ssjz.htm'
p2313
atRp2314
sg282
g8
((lp2315
S'http://www.changedu.com'
p2316
atRp2317
sg277
g8
((lp2318
S'http://www.changedu.com'
p2319
atRp2320
sg616
g8
((lp2321
g2174
atRp2322
sg633
g8
((lp2323
S'http://research.microsoft.com/en-us'
p2324
aS'http://ischools.org/the-iconference/program/early-career-colloquium'
p2325
aS'http://ischools.org/the-iconference/program/posters'
p2326
aS'http://ischools.org/the-iconference/program/dissertation-award'
p2327
aS'http://iva.ku.dk/forside'
p2328
aS'http://www.iva.dk/english'
p2329
aS'http://www.degruyter.com'
p2330
aS'https://www.ibi.hu-berlin.de'
p2331
aS'http://ischools.org/the-iconference/program/social-media-expo'
p2332
aS'http://www.ibi.hu-berlin.de'
p2333
aS'http://ischools.org/the-iconference/program/papers'
p2334
aS'http://ischools.org/the-iconference/about-the-iconference'
p2335
aS'http://ischools.org/the-iconference/program/sessions-for-interaction-and-engagement'
p2336
aS'http://eepurl.com/D0GVT'
p2337
aS'http://ischools.org/the-iconference/contact-information'
p2338
aS'http://ischools.org/the-iconference/registration'
p2339
aS'https://www.facebook.com/IConference'
p2340
aS'http://ischools.org/the-iconference/program/keynotes'
p2341
aS'https://twitter.com/iconf'
p2342
aS'http://ischools.org/the-iconference/program/professional-development-seminar'
p2343
aS'http://ischools.org/the-iconference/program/notes'
p2344
aS'http://ischools.org/the-iconference/program/doctoral-colloquium'
p2345
ag1865
aS'http://ischools.org/the-iconference/program/workshops'
p2346
aS'http://ischools.org/the-iconference/venue/accommodations'
p2347
aS'http://www.naturkundemuseum-berlin.de'
p2348
aS'http://ischools.org/the-iconference'
p2349
aS'http://ischools.org/about'
p2350
atRp2351
sg999
g8
((lp2352
S'http://www.changedu.com'
p2353
atRp2354
sg2243
g8
((ltRp2355
sg105
g8
((lp2356
S'http://www.archives.sh.cn/daes/fzlt/200702021344.htm.'
p2357
atRp2358
sg850
g8
((lp2359
S'http://grawww.nju.edu.cn/view.asp?id=378'
p2360
aS'http://grawww.nju.edu.cn/mis/ygraphy/index.asp%EF%BC%9B'
p2361
ag2172
aS'http://grawww.nju.edu.cn/content/gjjl1.htm'
p2362
atRp2363
sg126
g8
((lp2364
S'http://www.changedu.com'
p2365
atRp2366
sg1045
g8
((lp2367
g1867
atRp2368
sg231
g8
((lp2369
S'http://www.ischools.org/iConference13/expo'
p2370
aS'http://www.ischools.org/site/conference'
p2371
ag1793
aS'http://www.ischools.org/iConference13/doctoral'
p2372
aS'http://www.ischools.org/site'
p2373
aS'http://www.ischools.org/iConference13/jr_faculty'
p2374
atRp2375
sg1733
g8
((ltRp2376
sg229
g8
((lp2377
S'http://www.hwaying.net'
p2378
atRp2379
sg278
g8
((lp2380
S'http://www.changedu.com'
p2381
atRp2382
sg41
g8
((lp2383
S'http://www.changedu.com'
p2384
atRp2385
sg1554
g8
((ltRp2386
sg29
g8
((lp2387
S'http://www.changedu.com'
p2388
atRp2389
sg408
g8
((lp2390
S'http://bkzs.nju.cn'
p2391
atRp2392
sg1006
g8
((lp2393
S'http://www.npopss-cn.gov.cn/GB/219471/219473/16577155.html'
p2394
aS'http://www.npopss-cn.gov.cn/GB/219469/16580308.html'
p2395
aS'http://www.npopss-cn.gov.cn/GB/219644/15039122.html'
p2396
aS'http://www.npopss-cn.gov.cn/GB/219644/15069204.html'
p2397
atRp2398
sg798
g8
((lp2399
S'http://www.changedu.com'
p2400
atRp2401
sg799
g8
((lp2402
S'http://www.changedu.com'
p2403
atRp2404
sg1084
g8
((lp2405
S'http://www.ucd.ie/graduatestudies/coursefinder'
p2406
atRp2407
sg801
g8
((lp2408
S'http://www.changedu.com'
p2409
atRp2410
sg206
g8
((lp2411
S'http://www.changedu.com'
p2412
atRp2413
sg303
g8
((lp2414
S'http://www.changedu.com'
p2415
atRp2416
sg802
g8
((lp2417
S'http://www.changedu.com'
p2418
atRp2419
sg208
g8
((lp2420
S'http://www.changedu.com'
p2421
atRp2422
sg251
g8
((lp2423
S'http://www.changedu.com'
p2424
atRp2425
sg209
g8
((lp2426
S'http://www.changedu.com'
p2427
atRp2428
sg210
g8
((lp2429
S'http://www.changedu.com'
p2430
atRp2431
sg1088
g8
((lp2432
S'http://bkzs.nju.cn'
p2433
atRp2434
sg260
g8
((lp2435
S'http://www.changedu.com'
p2436
atRp2437
sg118
g8
((lp2438
S'http://research.microsoft.com/en-us'
p2439
aS'http://ischools.org/the-iconference/program/early-career-colloquium'
p2440
aS'http://ischools.org/the-iconference/program/posters'
p2441
aS'http://ischools.org/the-iconference/program/dissertation-award'
p2442
aS'http://iva.ku.dk/forside'
p2443
aS'http://www.iva.dk/english'
p2444
aS'http://www.degruyter.com'
p2445
aS'https://www.ibi.hu-berlin.de'
p2446
aS'http://ischools.org/the-iconference/program/social-media-expo'
p2447
aS'http://www.ibi.hu-berlin.de'
p2448
aS'http://ischools.org/the-iconference/program/papers'
p2449
aS'http://ischools.org/the-iconference/about-the-iconference'
p2450
aS'http://ischools.org/the-iconference/program/sessions-for-interaction-and-engagement'
p2451
aS'http://eepurl.com/D0GVT'
p2452
aS'http://ischools.org/the-iconference/contact-information'
p2453
aS'http://ischools.org/the-iconference/registration'
p2454
aS'https://www.facebook.com/IConference'
p2455
aS'http://ischools.org/the-iconference/program/keynotes'
p2456
aS'https://twitter.com/iconf'
p2457
aS'http://ischools.org/the-iconference/program/professional-development-seminar'
p2458
aS'http://ischools.org/the-iconference/program/notes'
p2459
aS'http://ischools.org/the-iconference/program/doctoral-colloquium'
p2460
aS'https://www.conftool.com/iConference2014'
p2461
aS'http://ischools.org/the-iconference/program/workshops'
p2462
aS'http://ischools.org/the-iconference/venue/accommodations'
p2463
aS'http://www.naturkundemuseum-berlin.de'
p2464
aS'http://ischools.org/the-iconference'
p2465
aS'http://ischools.org/about'
p2466
atRp2467
sS'http://grawww.nju.edu.cn/content/zs1.htm'
p2468
g8
((ltRp2469
sg268
g8
((lp2470
S'http://www.changedu.com'
p2471
atRp2472
sg168
g8
((lp2473
S'http://www.changedu.com'
p2474
ag1950
atRp2475
sg169
g8
((lp2476
S'http://www.changedu.com'
p2477
aS'http://innov.nju.edu.cn'
p2478
atRp2479
sg170
g8
((lp2480
S'http://www.changedu.com'
p2481
aS'http://jfx.nju.edu.cn/sbweb'
p2482
atRp2483
sg171
g8
((lp2484
S'http://eqpt.nju.edu.cn'
p2485
aS'http://www.changedu.com'
p2486
atRp2487
sg167
g8
((lp2488
S'http://www.changedu.com'
p2489
aS'http://www.njulib.cn/html/database.htm?fid=3&id=6'
p2490
atRp2491
sg954
g8
((lp2492
S'http://www.changedu.com'
p2493
atRp2494
sg2296
g8
((ltRp2495
sg585
g8
((lp2496
S'http://skch.nju.edu.cn'
p2497
ag1636
atRp2498
sg2357
g8
((ltRp2499
sg959
g8
((lp2500
S'http://www.changedu.com'
p2501
atRp2502
sg2290
g8
((ltRp2503
sg90
g8
((lp2504
S'http://www.changedu.com'
p2505
atRp2506
sg309
g8
((lp2507
S'http://www.changedu.com'
p2508
atRp2509
sg772
g8
((lp2510
S'http://www.changedu.com'
p2511
atRp2512
sg2378
g8
((ltRp2513
sg181
g8
((lp2514
S'http://www.changedu.com'
p2515
atRp2516
sg351
g8
((lp2517
S'http://bkzs.nju.cn'
p2518
atRp2519
sg536
g8
((lp2520
S'http://www.archives.sh.cn/daes/fzlt/200702021344.htm.'
p2521
atRp2522
sg257
g8
((lp2523
S'http://www.changedu.com'
p2524
atRp2525
sg2066
g8
((ltRp2526
sg818
g8
((lp2527
S'http://bbs.nju.edu.cn'
p2528
aS'http://grawww.nju.edu.cn/view.asp?id=407'
p2529
aS'http://grawww.nju.edu.cn/content/zs/ssjz.asp?depno=014'
p2530
aS'http://grawww.nju.edu.cn/content/zs1.htm'
p2531
atRp2532
sg121
g8
((lp2533
S'http://gl.jlu.edu.cn/manage/news_detail.php?cid=108&id=1953'
p2534
atRp2535
sg1520
g8
((ltRp2536
sg2478
g8
((ltRp2537
sg294
g8
((lp2538
S'http://www.changedu.com'
p2539
atRp2540
sg800
g8
((lp2541
S'http://www.changedu.com'
p2542
atRp2543
sg300
g8
((lp2544
S'http://www.changedu.com'
p2545
atRp2546
sg778
g8
((lp2547
S'http://www.changedu.com'
p2548
atRp2549
sg302
g8
((lp2550
S'http://www.changedu.com'
p2551
atRp2552
sg207
g8
((lp2553
S'http://www.changedu.com'
p2554
atRp2555
sg722
g8
((lp2556
S'http://www.gznc.edu.cn'
p2557
atRp2558
sg775
g8
((lp2559
S'http://www.changedu.com'
p2560
atRp2561
sg1785
g8
((ltRp2562
sg508
g8
((lp2563
S'http://www.changedu.com'
p2564
atRp2565
sg1915
g8
((ltRp2566
sg427
g8
((lp2567
g2057
atRp2568
sg1987
g8
((ltRp2569
sg2485
g8
((ltRp2570
sg350
g8
((lp2571
S'http://bbs.nju.edu.cn'
p2572
aS'http://grawww.nju.edu.cn/view.asp?id=407'
p2573
aS'http://grawww.nju.edu.cn/content/zs/ssjz.asp?depno=014'
p2574
ag2468
atRp2575
sg2518
g8
((ltRp2576
sg177
g8
((lp2577
S'http://www.changedu.com'
p2578
atRp2579
sg809
g8
((lp2580
S'http://www.changedu.com'
p2581
atRp2582
sg776
g8
((lp2583
S'http://www.changedu.com'
p2584
atRp2585
sg2395
g8
((ltRp2586
sg2096
g8
((ltRp2587
sg158
g8
((lp2588
S'http://www.changedu.com'
p2589
atRp2590
sg295
g8
((lp2591
S'http://www.changedu.com'
p2592
atRp2593
sg162
g8
((lp2594
S'http://114.212.192.22:90/book/book.do?actionType=view&bean.id=3624&pageFrom=commonList'
p2595
aS'http://114.212.192.22:90/book/book.do?actionType=view&bean.id=3623&pageFrom=commonList'
p2596
aS'http://114.212.192.22:90/book/book.do?actionType=view&bean.id=3621&pageFrom=commonList'
p2597
aS'http://114.212.192.22:90/book/book.do?actionType=view&bean.id=3630&pageFrom=commonList'
p2598
aS'http://114.212.192.22:90/book/book.do?actionType=view&bean.id=3632&pageFrom=commonList'
p2599
aS'http://114.212.192.22:90/book/book.do?actionType=view&bean.id=3622&pageFrom=commonList'
p2600
aS'http://114.212.192.22:90/book/book.do?actionType=view&bean.id=3628&pageFrom=commonList'
p2601
aS'http://114.212.192.22:90/book/book.do?actionType=view&bean.id=3631&pageFrom=commonList'
p2602
aS'http://114.212.192.22:90/book/book.do?actionType=view&bean.id=3627&pageFrom=commonList'
p2603
aS'http://114.212.192.22:90/book/book.do?actionType=view&bean.id=3625&pageFrom=commonList'
p2604
aS'http://product.dangdang.com/product.aspx?product_id=22786610'
p2605
aS'http://114.212.192.22:90/book/book.do?actionType=view&bean.id=3626&pageFrom=commonList'
p2606
aS'http://www.changedu.com'
p2607
aS'http://114.212.192.22:90/book/book.do?actionType=view&bean.id=3629&pageFrom=commonList'
p2608
atRp2609
sg2490
g8
((ltRp2610
st.