((lp1
S'http://im.nju.edu.cn'
p2
a(lp3
S'im.nju.edu.cn'
p4
a(S'im.nju.edu.cn'
tp5
(dp6
g2
c__builtin__
set
p7
((lp8
S'http://im.nju.edu.cn/showtwodir.aspx?tcategoryid=tcat20100608111'
p9
aS'http://im.nju.edu.cn/showonedir.aspx?tcategoryid=tcat2010060858'
p10
aS'http://im.nju.edu.cn/shownodir.aspx?tcategoryid=tcat2010060858'
p11
aS'http://im.nju.edu.cn/shownodir.aspx?contentid=cont20100629291&parentid=tcat20100608165&tcategoryid=tcat20100608165'
p12
aS'http://im.nju.edu.cn/shownodir.aspx?categoryid=tcat2010060826&tcategoryid=tcat2010060826'
p13
aS'http://im.nju.edu.cn/showstaff.aspx'
p14
aS'http://im.nju.edu.cn/shownodir.aspx?contentid=cont2010070834&parentid=tcat2010060876&tcategoryid=tcat2010060876'
p15
aS'http://im.nju.edu.cn/showonedir.aspx?tcategoryid=tcat20100608101'
p16
aS'http://im.nju.edu.cn/shownodir.aspx?categoryid=bcat2010062918&tcategoryid=tcat2010060846'
p17
aS'http://im.nju.edu.cn/shownodir.aspx?tcategoryid=tcat2010060876'
p18
aS'http://im.nju.edu.cn/shownodir.aspx?categoryid=tcat2010060835&tcategoryid=tcat2010060835'
p19
aS'http://im.nju.edu.cn/showtwodir.aspx?tcategoryid=tcat2010060846'
p20
aS'http://im.nju.edu.cn/showonedir.aspx?tcategoryid=tcat20100608145'
p21
aS'http://im.nju.edu.cn/showonedir.aspx?tcategoryid=tcat20100608155'
p22
aS'http://im.nju.edu.cn/showtwodir.aspx?tcategoryid=tcat20100608134'
p23
aS'http://im.nju.edu.cn'
p24
aS'http://im.nju.edu.cn/shownodir.aspx?contentid=cont2011101312&parentid=tcat2010060876&tcategoryid=tcat2010060876'
p25
atRp26
sg6
(dp27
S'http://im.nju.edu.cn/shownodir.aspx?contentid=cont2014031211&parentid=bcat2010062918&tcategoryid=bcat2010062918'
p28
(dp29
sS'http://im.nju.edu.cn/shownodir.aspx?contentid=cont2013040312&parentid=bcat2010062918&tcategoryid=bcat2010062918'
p30
(dp31
sS'http://im.nju.edu.cn/shownodir.aspx?contentid=cont2014121310&parentid=tcat2010060876&tcategoryid=tcat2010060876'
p32
(dp33
sS'http://im.nju.edu.cn/shownodir.aspx?contentid=cont2014121515&parentid=tcat2010060826&tcategoryid=tcat2010060826'
p34
(dp35
sS'http://im.nju.edu.cn/shownodir.aspx?contentid=cont2014052112&parentid=tcat2010060876&tcategoryid=tcat2010060876'
p36
(dp37
sS'http://im.nju.edu.cn/shownodir.aspx?contentid=cont2014042519&parentid=tcat2010060858&tcategoryid=tcat2010060858'
p38
(dp39
sS'http://im.nju.edu.cn/shownodir.aspx?contentid=cont2014102111&parentid=tcat2010060876&tcategoryid=tcat2010060876'
p40
(dp41
sS'http://im.nju.edu.cn/shownodir.aspx?contentid=cont2014031813&parentid=bcat2010062918&tcategoryid=bcat2010062918'
p42
(dp43
sS'http://im.nju.edu.cn/shownodir.aspx?contentid=cont2014070219&parentid=tcat2010060858&tcategoryid=tcat2010060858'
p44
(dp45
sS'http://im.nju.edu.cn/shownodir.aspx?contentid=cont2015031311&parentid=tcat2010060826&tcategoryid=tcat2010060826'
p46
(dp47
sS'http://im.nju.edu.cn/shownodir.aspx?contentid=cont2014103115&parentid=tcat2010060826&tcategoryid=tcat2010060826'
p48
(dp49
sS'http://im.nju.edu.cn/shownodir.aspx?contentid=cont2014053013&parentid=tcat2010060876&tcategoryid=tcat2010060876'
p50
(dp51
sg2
(dp52
g28
I1
sg30
I1
sg32
I1
sg34
I1
sg36
I1
sg38
I1
sg40
I1
sg42
I1
sg44
I1
sg46
I1
sg48
I1
sg50
I1
sS'http://im.nju.edu.cn/shownodir.aspx?contentid=cont2013032617&parentid=bcat2010062918&tcategoryid=bcat2010062918'
p53
I1
sS'http://im.nju.edu.cn/shownodir.aspx?contentid=cont2014102711&parentid=tcat2010060876&tcategoryid=tcat2010060876'
p54
I1
sS'http://im.nju.edu.cn/shownodir.aspx?contentid=cont2014122916&parentid=tcat2010060876&tcategoryid=tcat2010060876'
p55
I1
sS'http://im.nju.edu.cn/shownodir.aspx?contentid=cont2014060625&parentid=tcat2010060835&tcategoryid=tcat2010060835'
p56
I1
sS'http://im.nju.edu.cn/shownodir.aspx?contentid=cont2014012419&parentid=tcat2010060858&tcategoryid=tcat2010060858'
p57
I1
sS'http://im.nju.edu.cn/shownodir.aspx?contentid=cont2014101111&parentid=tcat2010060876&tcategoryid=tcat2010060876'
p58
I1
sS'http://im.nju.edu.cn/shownodir.aspx?contentid=cont2014093027&parentid=tcat2010060876&tcategoryid=tcat2010060876'
p59
I1
sS'http://im.nju.edu.cn/shownodir.aspx?contentid=cont2014120314&parentid=tcat2010060826&tcategoryid=tcat2010060826'
p60
I1
sS'http://im.nju.edu.cn/shownodir.aspx?contentid=cont2013042329&parentid=tcat2010060858&tcategoryid=tca'
p61
I1
sS'http://im.nju.edu.cn/shownodir.aspx?contentid=cont2014123012&parentid=tcat2010060826&tcategoryid=tcat2010060826'
p62
I1
sS'http://im.nju.edu.cn/shownodir.aspx?contentid=cont2014121618&parentid=tcat2010060835&tcategoryid=tcat2010060835'
p63
I1
sS'http://im.nju.edu.cn/shownodir.aspx?contentid=cont2014121216&parentid=tcat2010060826&tcategoryid=tcat2010060826'
p64
I1
sS'http://im.nju.edu.cn/labcenter'
p65
I1
sS'http://im.nju.edu.cn/shownodir.aspx?contentid=cont2014111016&parentid=tcat2010060835&tcategoryid=tcat2010060835'
p66
I1
sS'http://im.nju.edu.cn/shownodir.aspx?contentid=cont2013121612&parentid=tcat2010060858&tcategoryid=tcat2010060858'
p67
I1
sS'http://im.nju.edu.cn/shownodir.aspx?contentid=cont2014101216&parentid=tcat2010060835&tcategoryid=tcat2010060835'
p68
I1
sS'http://im.nju.edu.cn/shownodir.aspx?contentid=cont2014041011&parentid=tcat2010060858&tcategoryid=tcat2010060858'
p69
I1
sS'http://im.nju.edu.cn/shownodir.aspx?contentid=cont2014040417&parentid=bcat2010062918&tcategoryid=bcat2010062918'
p70
I1
sS'http://im.nju.edu.cn/shownodir.aspx?contentid=cont2014061420&parentid=tcat2010060835&tcategoryid=tcat2010060835'
p71
I1
sS'http://im.nju.edu.cn/shownodir.aspx?contentid=cont2014070227&parentid=tcat2010060876&tcategoryid=tcat2010060876'
p72
I1
sS'http://im.nju.edu.cn/shownodir.aspx?contentid=cont2014043013&parentid=tcat2010060858&tcategoryid=tcat2010060858'
p73
I1
sS'http://im.nju.edu.cn/shownodir.aspx?contentid=cont2013031516&parentid=bcat2010062918&tcategoryid=bcat2010062918'
p74
I1
sS'http://im.nju.edu.cn/shownodir.aspx?contentid=cont2014061413&parentid=tcat2010060835&tcategoryid=tcat2010060835'
p75
I1
ssg53
(dp76
sg54
(dp77
sg55
(dp78
sg56
(dp79
sg57
(dp80
sg58
(dp81
sg59
(dp82
sg60
(dp83
sg61
(dp84
sg62
(dp85
sg63
(dp86
sg64
(dp87
sg65
(dp88
sg66
(dp89
sg67
(dp90
sg68
(dp91
sg69
(dp92
sg70
(dp93
sg71
(dp94
sg72
(dp95
sg73
(dp96
sg74
(dp97
sg75
(dp98
s(dp99
g12
g7
((lp100
S'http://irm.nju.edu.cn'
p101
atRp102
sS'http://www.archives.sh.cn/daes/fzlt/200702021344.htm.'
p103
g7
((ltRp104
sg10
g7
((lp105
g103
atRp106
sg2
g7
((lp107
S'http://cssci.nju.edu.cn/'
p108
aS'http://www.nju.edu.cn'
p109
aS'http://sim.whu.edu.cn'
p110
ag16
aS'http://202.119.40.6/siss/index.php'
p111
ag21
ag10
aS'http://ibs.nankai.edu.cn'
p112
aS'http://www.istic.ac.cn'
p113
aS'http://www.irm.cn'
p114
aS"javascript:__doPostBack('ctl00$left$UserLoginControl1$BTNLogin','')"
p115
ag12
ag14
aS"javascript:__doPostBack('ctl00$left$UserLoginControl1$BTNNjuLogin','')"
p116
ag20
aS'http://im.nju.edu.cn'
p117
ag15
ag11
aS'http://im.sysu.edu.cn'
p118
ag17
ag18
ag22
ag25
aS'http://www.las.ac.cn'
p119
ag9
aS'http://202.119.40.6/njuim/xueke'
p120
aS'http://www.im.pku.edu.cn'
p121
ag13
aS'http://www.saac.gov.cn'
p122
ag23
ag19
aS'http://www.nlc.gov.cn'
p123
aS'http://irm.nju.edu.cn/index.asp'
p124
atRp125
sg101
g7
((ltRp126
st.