((lp1
S'http://linkanalysis.wlv.ac.uk'
p2
aS'http://cybermetrics.wlv.ac.uk'
p3
aS'http://socscibot.wlv.ac.uk'
p4
a(lp5
S'linkanalysis.wlv.ac.uk'
p6
aS'cybermetrics.wlv.ac.uk'
p7
aS'socscibot.wlv.ac.uk'
p8
a(t(dp9
g3
c__builtin__
set
p10
((ltRp11
sg2
g10
((ltRp12
sg4
g10
((ltRp13
sg9
(dp14
g3
(dp15
sg2
(dp16
sg4
(dp17
s(dp18
g3
g10
((ltRp19
sg2
g10
((ltRp20
sg4
g10
((ltRp21
st.